

Microchip MPLAB XC8 Assembler V2.40 build 20220703182018 
                                                                                               Wed Feb 08 11:19:10 2023

Microchip MPLAB XC8 C Compiler v2.40 (Free license) build 20220703182018 Og1 
     1                           	processor	16F887
     2                           	pagewidth 120
     3                           	opt	flic
     4                           	psect	strings,global,class=STRING,delta=2,noexec
     5                           	psect	cinit,global,class=CODE,merge=1,delta=2
     6                           	psect	bssBANK0,global,class=BANK0,space=1,delta=1,noexec
     7                           	psect	bssBANK1,global,class=BANK1,space=1,delta=1,noexec
     8                           	psect	bssBANK3,global,class=BANK3,space=1,delta=1,noexec
     9                           	psect	bssBANK2,global,class=BANK2,space=1,delta=1,noexec
    10                           	psect	clrtext,global,class=CODE,delta=2
    11                           	psect	cstackBANK3,global,class=BANK3,space=1,delta=1,noexec
    12                           	psect	cstackBANK1,global,class=BANK1,space=1,delta=1,noexec
    13                           	psect	cstackCOMMON,global,class=COMMON,space=1,delta=1,noexec
    14                           	psect	cstackBANK0,global,class=BANK0,space=1,delta=1,noexec
    15                           	psect	maintext,global,class=CODE,split=1,delta=2
    16                           	psect	text1,local,class=CODE,merge=1,delta=2,group=3
    17                           	psect	text2,local,class=CODE,merge=1,delta=2,group=3
    18                           	psect	text3,local,class=CODE,merge=1,delta=2,group=1
    19                           	psect	text4,local,class=CODE,merge=1,delta=2,group=2
    20                           	psect	text5,local,class=CODE,merge=1,delta=2,group=2
    21                           	psect	text6,local,class=CODE,merge=1,delta=2,group=3
    22                           	psect	text7,local,class=CODE,merge=1,delta=2,group=3
    23                           	psect	text8,local,class=CODE,merge=1,delta=2,group=2
    24                           	psect	text9,local,class=CODE,merge=1,delta=2,group=3
    25                           	psect	text10,local,class=CODE,merge=1,delta=2,group=2
    26                           	psect	text11,local,class=CODE,merge=1,delta=2,group=2
    27                           	psect	text12,local,class=CODE,merge=1,delta=2,group=2
    28                           	psect	text13,local,class=CODE,merge=1,delta=2,group=2
    29                           	psect	text14,local,class=CODE,merge=1,delta=2,group=2
    30                           	psect	text15,local,class=CODE,merge=1,delta=2,group=2
    31                           	psect	text16,local,class=CODE,merge=1,delta=2,group=2
    32                           	psect	text17,local,class=CODE,merge=1,delta=2,group=2
    33                           	psect	text18,local,class=CODE,merge=1,delta=2
    34                           	psect	text19,local,class=CODE,merge=1,delta=2
    35                           	psect	text20,local,class=CODE,merge=1,delta=2
    36                           	psect	text21,local,class=CODE,merge=1,delta=2,group=2
    37                           	psect	text22,local,class=CODE,merge=1,delta=2
    38                           	psect	text23,local,class=CODE,merge=1,delta=2
    39                           	psect	text24,local,class=CODE,merge=1,delta=2
    40                           	psect	text25,local,class=CODE,merge=1,delta=2
    41                           	psect	text26,local,class=CODE,merge=1,delta=2
    42                           	psect	text27,local,class=CODE,merge=1,delta=2
    43                           	psect	config,global,abs,ovrld,class=CONFIG,space=4,delta=2,noexec
    44                           	dabs	1,0x7E,2
    45     0000                     
    46                           ; Version 2.40
    47                           ; Generated 04/07/2022 GMT
    48                           ; 
    49                           ; Copyright © 2022, Microchip Technology Inc. and its subsidiaries ("Microchip")
    50                           ; All rights reserved.
    51                           ; 
    52                           ; This software is developed by Microchip Technology Inc. and its subsidiaries ("Microch
      +                          ip").
    53                           ; 
    54                           ; Redistribution and use in source and binary forms, with or without modification, are
    55                           ; permitted provided that the following conditions are met:
    56                           ; 
    57                           ;     1. Redistributions of source code must retain the above copyright notice, this lis
      +                          t of
    58                           ;        conditions and the following disclaimer.
    59                           ; 
    60                           ;     2. Redistributions in binary form must reproduce the above copyright notice, this 
      +                          list
    61                           ;        of conditions and the following disclaimer in the documentation and/or other
    62                           ;        materials provided with the distribution. Publication is not required when
    63                           ;        this file is used in an embedded application.
    64                           ; 
    65                           ;     3. Microchip's name may not be used to endorse or promote products derived from th
      +                          is
    66                           ;        software without specific prior written permission.
    67                           ; 
    68                           ; THIS SOFTWARE IS PROVIDED BY MICROCHIP "AS IS" AND ANY EXPRESS OR IMPLIED WARRANTIES,
    69                           ; INCLUDING, BUT NOT LIMITED TO, THE IMPLIED WARRANTIES OF MERCHANTABILITY AND FITNESS F
      +                          OR
    70                           ; PURPOSE ARE DISCLAIMED.  IN NO EVENT SHALL MICROCHIP BE LIABLE FOR ANY DIRECT, INDIREC
      +                          T,
    71                           ; INCIDENTAL, SPECIAL, EXEMPLARY, OR CONSEQUENTIAL DAMAGES (INCLUDING BUT NOT LIMITED TO
    72                           ; PROCUREMENT OF SUBSTITUTE GOODS OR SERVICES; LOSS OF USE, DATA OR PROFITS; OR BUSINESS
    73                           ; INTERRUPTION) HOWSOEVER CAUSED AND ON ANY THEORY OF LIABILITY, WHETHER IN CONTRACT, ST
      +                          RICT
    74                           ; LIABILITY, OR TORT (INCLUDING NEGLIGENCE OR OTHERWISE) ARISING IN ANY WAY OUT OF THE U
      +                          SE OF
    75                           ; THIS SOFTWARE, EVEN IF ADVISED OF THE POSSIBILITY OF SUCH DAMAGE.
    76                           ; 
    77                           ; 
    78                           ; Code-generator required, PIC16F887 Definitions
    79                           ; 
    80                           ; SFR Addresses
    81     0000                     	;# 
    82     0001                     	;# 
    83     0002                     	;# 
    84     0003                     	;# 
    85     0004                     	;# 
    86     0005                     	;# 
    87     0006                     	;# 
    88     0007                     	;# 
    89     0008                     	;# 
    90     0009                     	;# 
    91     000A                     	;# 
    92     000B                     	;# 
    93     000C                     	;# 
    94     000D                     	;# 
    95     000E                     	;# 
    96     000E                     	;# 
    97     000F                     	;# 
    98     0010                     	;# 
    99     0011                     	;# 
   100     0012                     	;# 
   101     0013                     	;# 
   102     0014                     	;# 
   103     0015                     	;# 
   104     0015                     	;# 
   105     0016                     	;# 
   106     0017                     	;# 
   107     0018                     	;# 
   108     0019                     	;# 
   109     001A                     	;# 
   110     001B                     	;# 
   111     001B                     	;# 
   112     001C                     	;# 
   113     001D                     	;# 
   114     001E                     	;# 
   115     001F                     	;# 
   116     0081                     	;# 
   117     0085                     	;# 
   118     0086                     	;# 
   119     0087                     	;# 
   120     0088                     	;# 
   121     0089                     	;# 
   122     008C                     	;# 
   123     008D                     	;# 
   124     008E                     	;# 
   125     008F                     	;# 
   126     0090                     	;# 
   127     0091                     	;# 
   128     0092                     	;# 
   129     0093                     	;# 
   130     0093                     	;# 
   131     0093                     	;# 
   132     0094                     	;# 
   133     0095                     	;# 
   134     0096                     	;# 
   135     0097                     	;# 
   136     0098                     	;# 
   137     0099                     	;# 
   138     009A                     	;# 
   139     009B                     	;# 
   140     009C                     	;# 
   141     009D                     	;# 
   142     009E                     	;# 
   143     009F                     	;# 
   144     0105                     	;# 
   145     0107                     	;# 
   146     0108                     	;# 
   147     0109                     	;# 
   148     010C                     	;# 
   149     010C                     	;# 
   150     010D                     	;# 
   151     010E                     	;# 
   152     010F                     	;# 
   153     0185                     	;# 
   154     0187                     	;# 
   155     0188                     	;# 
   156     0189                     	;# 
   157     018C                     	;# 
   158     018D                     	;# 
   159     0000                     	;# 
   160     0001                     	;# 
   161     0002                     	;# 
   162     0003                     	;# 
   163     0004                     	;# 
   164     0005                     	;# 
   165     0006                     	;# 
   166     0007                     	;# 
   167     0008                     	;# 
   168     0009                     	;# 
   169     000A                     	;# 
   170     000B                     	;# 
   171     000C                     	;# 
   172     000D                     	;# 
   173     000E                     	;# 
   174     000E                     	;# 
   175     000F                     	;# 
   176     0010                     	;# 
   177     0011                     	;# 
   178     0012                     	;# 
   179     0013                     	;# 
   180     0014                     	;# 
   181     0015                     	;# 
   182     0015                     	;# 
   183     0016                     	;# 
   184     0017                     	;# 
   185     0018                     	;# 
   186     0019                     	;# 
   187     001A                     	;# 
   188     001B                     	;# 
   189     001B                     	;# 
   190     001C                     	;# 
   191     001D                     	;# 
   192     001E                     	;# 
   193     001F                     	;# 
   194     0081                     	;# 
   195     0085                     	;# 
   196     0086                     	;# 
   197     0087                     	;# 
   198     0088                     	;# 
   199     0089                     	;# 
   200     008C                     	;# 
   201     008D                     	;# 
   202     008E                     	;# 
   203     008F                     	;# 
   204     0090                     	;# 
   205     0091                     	;# 
   206     0092                     	;# 
   207     0093                     	;# 
   208     0093                     	;# 
   209     0093                     	;# 
   210     0094                     	;# 
   211     0095                     	;# 
   212     0096                     	;# 
   213     0097                     	;# 
   214     0098                     	;# 
   215     0099                     	;# 
   216     009A                     	;# 
   217     009B                     	;# 
   218     009C                     	;# 
   219     009D                     	;# 
   220     009E                     	;# 
   221     009F                     	;# 
   222     0105                     	;# 
   223     0107                     	;# 
   224     0108                     	;# 
   225     0109                     	;# 
   226     010C                     	;# 
   227     010C                     	;# 
   228     010D                     	;# 
   229     010E                     	;# 
   230     010F                     	;# 
   231     0185                     	;# 
   232     0187                     	;# 
   233     0188                     	;# 
   234     0189                     	;# 
   235     018C                     	;# 
   236     018D                     	;# 
   237     0000                     	;# 
   238     0001                     	;# 
   239     0002                     	;# 
   240     0003                     	;# 
   241     0004                     	;# 
   242     0005                     	;# 
   243     0006                     	;# 
   244     0007                     	;# 
   245     0008                     	;# 
   246     0009                     	;# 
   247     000A                     	;# 
   248     000B                     	;# 
   249     000C                     	;# 
   250     000D                     	;# 
   251     000E                     	;# 
   252     000E                     	;# 
   253     000F                     	;# 
   254     0010                     	;# 
   255     0011                     	;# 
   256     0012                     	;# 
   257     0013                     	;# 
   258     0014                     	;# 
   259     0015                     	;# 
   260     0015                     	;# 
   261     0016                     	;# 
   262     0017                     	;# 
   263     0018                     	;# 
   264     0019                     	;# 
   265     001A                     	;# 
   266     001B                     	;# 
   267     001B                     	;# 
   268     001C                     	;# 
   269     001D                     	;# 
   270     001E                     	;# 
   271     001F                     	;# 
   272     0081                     	;# 
   273     0085                     	;# 
   274     0086                     	;# 
   275     0087                     	;# 
   276     0088                     	;# 
   277     0089                     	;# 
   278     008C                     	;# 
   279     008D                     	;# 
   280     008E                     	;# 
   281     008F                     	;# 
   282     0090                     	;# 
   283     0091                     	;# 
   284     0092                     	;# 
   285     0093                     	;# 
   286     0093                     	;# 
   287     0093                     	;# 
   288     0094                     	;# 
   289     0095                     	;# 
   290     0096                     	;# 
   291     0097                     	;# 
   292     0098                     	;# 
   293     0099                     	;# 
   294     009A                     	;# 
   295     009B                     	;# 
   296     009C                     	;# 
   297     009D                     	;# 
   298     009E                     	;# 
   299     009F                     	;# 
   300     0105                     	;# 
   301     0107                     	;# 
   302     0108                     	;# 
   303     0109                     	;# 
   304     010C                     	;# 
   305     010C                     	;# 
   306     010D                     	;# 
   307     010E                     	;# 
   308     010F                     	;# 
   309     0185                     	;# 
   310     0187                     	;# 
   311     0188                     	;# 
   312     0189                     	;# 
   313     018C                     	;# 
   314     018D                     	;# 
   315     0000                     	;# 
   316     0001                     	;# 
   317     0002                     	;# 
   318     0003                     	;# 
   319     0004                     	;# 
   320     0005                     	;# 
   321     0006                     	;# 
   322     0007                     	;# 
   323     0008                     	;# 
   324     0009                     	;# 
   325     000A                     	;# 
   326     000B                     	;# 
   327     000C                     	;# 
   328     000D                     	;# 
   329     000E                     	;# 
   330     000E                     	;# 
   331     000F                     	;# 
   332     0010                     	;# 
   333     0011                     	;# 
   334     0012                     	;# 
   335     0013                     	;# 
   336     0014                     	;# 
   337     0015                     	;# 
   338     0015                     	;# 
   339     0016                     	;# 
   340     0017                     	;# 
   341     0018                     	;# 
   342     0019                     	;# 
   343     001A                     	;# 
   344     001B                     	;# 
   345     001B                     	;# 
   346     001C                     	;# 
   347     001D                     	;# 
   348     001E                     	;# 
   349     001F                     	;# 
   350     0081                     	;# 
   351     0085                     	;# 
   352     0086                     	;# 
   353     0087                     	;# 
   354     0088                     	;# 
   355     0089                     	;# 
   356     008C                     	;# 
   357     008D                     	;# 
   358     008E                     	;# 
   359     008F                     	;# 
   360     0090                     	;# 
   361     0091                     	;# 
   362     0092                     	;# 
   363     0093                     	;# 
   364     0093                     	;# 
   365     0093                     	;# 
   366     0094                     	;# 
   367     0095                     	;# 
   368     0096                     	;# 
   369     0097                     	;# 
   370     0098                     	;# 
   371     0099                     	;# 
   372     009A                     	;# 
   373     009B                     	;# 
   374     009C                     	;# 
   375     009D                     	;# 
   376     009E                     	;# 
   377     009F                     	;# 
   378     0105                     	;# 
   379     0107                     	;# 
   380     0108                     	;# 
   381     0109                     	;# 
   382     010C                     	;# 
   383     010C                     	;# 
   384     010D                     	;# 
   385     010E                     	;# 
   386     010F                     	;# 
   387     0185                     	;# 
   388     0187                     	;# 
   389     0188                     	;# 
   390     0189                     	;# 
   391     018C                     	;# 
   392     018D                     	;# 
   393                           
   394                           	psect	strings
   395     1000                     __pstrings:
   396     1000                     stringtab:
   397     1000                     __stringtab:
   398                           
   399                           ;	String table - string pointers are 1 byte each
   400     1000  1BFF               	btfsc	btemp+1,7
   401     1001  280A               	ljmp	stringcode
   402     1002  1383               	bcf	3,7
   403     1003  187F               	btfsc	btemp+1,0
   404     1004  1783               	bsf	3,7
   405     1005  0800               	movf	0,w
   406     1006  0A84               	incf	4,f
   407     1007  1903               	skipnz
   408     1008  0AFF               	incf	btemp+1,f
   409     1009  0008               	return
   410     100A                     stringcode:
   411     100A                     stringdir:
   412     100A  3010               	movlw	high stringdir
   413     100B  008A               	movwf	10
   414     100C  0804               	movf	4,w
   415     100D  0A84               	incf	4,f
   416     100E  0782               	addwf	2,f
   417     100F                     __stringbase:
   418     100F  3400               	retlw	0
   419     1010                     __end_of__stringtab:
   420     1010                     _dpowers:
   421     1010  3401               	retlw	1
   422     1011  3400               	retlw	0
   423     1012  340A               	retlw	10
   424     1013  3400               	retlw	0
   425     1014  3464               	retlw	100
   426     1015  3400               	retlw	0
   427     1016  34E8               	retlw	232
   428     1017  3403               	retlw	3
   429     1018  3410               	retlw	16
   430     1019  3427               	retlw	39
   431     101A                     __end_of_dpowers:
   432     101A                     log@coeff:
   433     101A  3400               	retlw	0
   434     101B  3400               	retlw	0
   435     101C  3400               	retlw	0
   436     101D  3400               	retlw	0
   437     101E  34C4               	retlw	196
   438     101F  34FF               	retlw	255
   439     1020  347F               	retlw	127
   440     1021  343F               	retlw	63
   441     1022  3480               	retlw	128
   442     1023  34EF               	retlw	239
   443     1024  34FF               	retlw	255
   444     1025  34BE               	retlw	190
   445     1026  3490               	retlw	144
   446     1027  34E1               	retlw	225
   447     1028  34A9               	retlw	169
   448     1029  343E               	retlw	62
   449     102A  34EC               	retlw	236
   450     102B  3482               	retlw	130
   451     102C  3476               	retlw	118
   452     102D  34BE               	retlw	190
   453     102E  3482               	retlw	130
   454     102F  34AD               	retlw	173
   455     1030  342B               	retlw	43
   456     1031  343E               	retlw	62
   457     1032  340E               	retlw	14
   458     1033  343C               	retlw	60
   459     1034  34C3               	retlw	195
   460     1035  34BD               	retlw	189
   461     1036  3487               	retlw	135
   462     1037  34D1               	retlw	209
   463     1038  3413               	retlw	19
   464     1039  343D               	retlw	61
   465     103A  3441               	retlw	65
   466     103B  3478               	retlw	120
   467     103C  34D3               	retlw	211
   468     103D  34BB               	retlw	187
   469     103E                     __end_oflog@coeff:
   470     001A                     _RCREG	set	26
   471     0018                     _RCSTAbits	set	24
   472     0019                     _TXREG	set	25
   473     0018                     _RCSTA	set	24
   474     0008                     _PORTDbits	set	8
   475     0007                     _PORTCbits	set	7
   476     001E                     _ADRESH	set	30
   477     0008                     _PORTD	set	8
   478     0009                     _PORTE	set	9
   479     001F                     _ADCON0bits	set	31
   480     00C4                     _CREN	set	196
   481     0065                     _RCIF	set	101
   482     0064                     _TXIF	set	100
   483     0098                     _TXSTA	set	152
   484     0099                     _SPBRG	set	153
   485     009E                     _ADRESL	set	158
   486     009F                     _ADCON1bits	set	159
   487     0089                     _TRISE	set	137
   488     0088                     _TRISD	set	136
   489     008F                     _OSCCON	set	143
   490     043F                     _TRISC7	set	1087
   491     043E                     _TRISC6	set	1086
   492     043B                     _TRISC3	set	1083
   493     0438                     _TRISC0	set	1080
   494     0439                     _TRISC1	set	1081
   495     0428                     _TRISA0	set	1064
   496     0188                     _ANSEL	set	392
   497     103E                     STR_2:
   498     103E  343D               	retlw	61	;'='
   499     103F  343D               	retlw	61	;'='
   500     1040  343D               	retlw	61	;'='
   501     1041  343D               	retlw	61	;'='
   502     1042  343D               	retlw	61	;'='
   503     1043  343D               	retlw	61	;'='
   504     1044  343D               	retlw	61	;'='
   505     1045  343D               	retlw	61	;'='
   506     1046  343D               	retlw	61	;'='
   507     1047  343D               	retlw	61	;'='
   508     1048  343D               	retlw	61	;'='
   509     1049  343D               	retlw	61	;'='
   510     104A  343D               	retlw	61	;'='
   511     104B  343D               	retlw	61	;'='
   512     104C  343D               	retlw	61	;'='
   513     104D  3453               	retlw	83	;'S'
   514     104E  3449               	retlw	73	;'I'
   515     104F  3453               	retlw	83	;'S'
   516     1050  3454               	retlw	84	;'T'
   517     1051  3445               	retlw	69	;'E'
   518     1052  344D               	retlw	77	;'M'
   519     1053  3441               	retlw	65	;'A'
   520     1054  3420               	retlw	32	;' '
   521     1055  3444               	retlw	68	;'D'
   522     1056  3445               	retlw	69	;'E'
   523     1057  3420               	retlw	32	;' '
   524     1058  344D               	retlw	77	;'M'
   525     1059  344F               	retlw	79	;'O'
   526     105A  344E               	retlw	78	;'N'
   527     105B  3449               	retlw	73	;'I'
   528     105C  3454               	retlw	84	;'T'
   529     105D  344F               	retlw	79	;'O'
   530     105E  3452               	retlw	82	;'R'
   531     105F  3445               	retlw	69	;'E'
   532     1060  344F               	retlw	79	;'O'
   533     1061  3420               	retlw	32	;' '
   534     1062  3444               	retlw	68	;'D'
   535     1063  3445               	retlw	69	;'E'
   536     1064  3420               	retlw	32	;' '
   537     1065  3456               	retlw	86	;'V'
   538     1066  3445               	retlw	69	;'E'
   539     1067  3448               	retlw	72	;'H'
   540     1068  3449               	retlw	73	;'I'
   541     1069  3443               	retlw	67	;'C'
   542     106A  3455               	retlw	85	;'U'
   543     106B  344C               	retlw	76	;'L'
   544     106C  344F               	retlw	79	;'O'
   545     106D  343D               	retlw	61	;'='
   546     106E  343D               	retlw	61	;'='
   547     106F  343D               	retlw	61	;'='
   548     1070  343D               	retlw	61	;'='
   549     1071  343D               	retlw	61	;'='
   550     1072  343D               	retlw	61	;'='
   551     1073  343D               	retlw	61	;'='
   552     1074  343D               	retlw	61	;'='
   553     1075  343D               	retlw	61	;'='
   554     1076  343D               	retlw	61	;'='
   555     1077  343D               	retlw	61	;'='
   556     1078  343D               	retlw	61	;'='
   557     1079  343D               	retlw	61	;'='
   558     107A  343D               	retlw	61	;'='
   559     107B  343D               	retlw	61	;'='
   560     107C  3400               	retlw	0
   561     107D                     STR_1:
   562     107D  3444               	retlw	68	;'D'
   563     107E  3445               	retlw	69	;'E'
   564     107F  3454               	retlw	84	;'T'
   565     1080  3445               	retlw	69	;'E'
   566     1081  3443               	retlw	67	;'C'
   567     1082  3454               	retlw	84	;'T'
   568     1083  3441               	retlw	65	;'A'
   569     1084  344E               	retlw	78	;'N'
   570     1085  3444               	retlw	68	;'D'
   571     1086  344F               	retlw	79	;'O'
   572     1087  342E               	retlw	46	;'.'
   573     1088  342E               	retlw	46	;'.'
   574     1089  342E               	retlw	46	;'.'
   575     108A  3400               	retlw	0
   576     108B                     STR_11:
   577     108B  344E               	retlw	78	;'N'
   578     108C  344F               	retlw	79	;'O'
   579     108D  3420               	retlw	32	;' '
   580     108E  3443               	retlw	67	;'C'
   581     108F  3448               	retlw	72	;'H'
   582     1090  344F               	retlw	79	;'O'
   583     1091  3451               	retlw	81	;'Q'
   584     1092  3455               	retlw	85	;'U'
   585     1093  3445               	retlw	69	;'E'
   586     1094  3400               	retlw	0
   587     1095                     STR_3:
   588     1095  3425               	retlw	37	;'%'
   589     1096  3464               	retlw	100	;'d'
   590     1097  3425               	retlw	37	;'%'
   591     1098  3463               	retlw	99	;'c'
   592     1099  3443               	retlw	67	;'C'
   593     109A  3400               	retlw	0
   594     109B                     STR_13:
   595     109B  3441               	retlw	65	;'A'
   596     109C  3443               	retlw	67	;'C'
   597     109D  3443               	retlw	67	;'C'
   598     109E  3400               	retlw	0
   599     109F                     STR_8:
   600     109F  344E               	retlw	78	;'N'
   601     10A0  342D               	retlw	45	;'-'
   602     10A1  3447               	retlw	71	;'G'
   603     10A2  3400               	retlw	0
   604     10A3                     STR_7:
   605     10A3  3453               	retlw	83	;'S'
   606     10A4  342D               	retlw	45	;'-'
   607     10A5  3447               	retlw	71	;'G'
   608     10A6  3400               	retlw	0
   609     10A7                     STR_14:
   610     10A7  3453               	retlw	83	;'S'
   611     10A8  3445               	retlw	69	;'E'
   612     10A9  3447               	retlw	71	;'G'
   613     10AA  3400               	retlw	0
   614     10AB                     STR_15:
   615     10AB  340D               	retlw	13
   616     10AC  340A               	retlw	10
   617     10AD  3400               	retlw	0
   618     10AE                     STR_5:
   619     10AE  3420               	retlw	32	;' '
   620     10AF  3420               	retlw	32	;' '
   621     10B0  3400               	retlw	0
   622     10B1                     STR_4:
   623     10B1  3454               	retlw	84	;'T'
   624     10B2  343A               	retlw	58	;':'
   625     10B3  3400               	retlw	0
   626     10B4                     STR_6:
   627     10B4  342C               	retlw	44	;','
   628     10B5  3400               	retlw	0
   629     10AE                     
   630                           	psect	cinit
   631     07E3                     start_initialization:	
   632                           ; #config settings
   633                           
   634     07E3                     __initialization:
   635                           
   636                           ; Clear objects allocated to BANK0
   637     07E3  1283               	bcf	3,5	;RP0=0, select bank0
   638     07E4  1303               	bcf	3,6	;RP1=0, select bank0
   639     07E5  01EF               	clrf	__pbssBANK0& (0+127)
   640                           
   641                           ; Clear objects allocated to BANK1
   642     07E6  1683               	bsf	3,5	;RP0=1, select bank1
   643     07E7  1303               	bcf	3,6	;RP1=0, select bank1
   644     07E8  01C3               	clrf	__pbssBANK1& (0+127)
   645     07E9  01C4               	clrf	(__pbssBANK1+1)& (0+127)
   646     07EA  01C5               	clrf	(__pbssBANK1+2)& (0+127)
   647                           
   648                           ; Clear objects allocated to BANK3
   649     07EB  1683               	bsf	3,5	;RP0=1, select bank3
   650     07EC  1703               	bsf	3,6	;RP1=1, select bank3
   651     07ED  01C0               	clrf	__pbssBANK3& (0+127)
   652     07EE  01C1               	clrf	(__pbssBANK3+1)& (0+127)
   653     07EF  01C2               	clrf	(__pbssBANK3+2)& (0+127)
   654     07F0  01C3               	clrf	(__pbssBANK3+3)& (0+127)
   655     07F1  01C4               	clrf	(__pbssBANK3+4)& (0+127)
   656     07F2  01C5               	clrf	(__pbssBANK3+5)& (0+127)
   657                           
   658                           ; Clear objects allocated to BANK2
   659     07F3  1783               	bsf	3,7	;select IRP bank2
   660     07F4  3010               	movlw	low __pbssBANK2
   661     07F5  0084               	movwf	4
   662     07F6  3042               	movlw	low (__pbssBANK2+50)
   663     07F7  120A  158A  2004  120A  118A  	fcall	clear_ram0
   664     07FC                     end_of_initialization:	
   665                           ;End of C runtime variable initialization code
   666                           
   667     07FC                     __end_of__initialization:
   668     07FC  0183               	clrf	3
   669     07FD  120A  118A  2B69   	ljmp	_main	;jump to C main() function
   670                           
   671                           	psect	bssBANK0
   672     006F                     __pbssBANK0:
   673     006F                     _counter_digito:
   674     006F                     	ds	1
   675                           
   676                           	psect	bssBANK1
   677     00C3                     __pbssBANK1:
   678     00C3                     _errno:
   679     00C3                     	ds	2
   680     00C5                     _lm35:
   681     00C5                     	ds	1
   682                           
   683                           	psect	bssBANK3
   684     01C0                     __pbssBANK3:
   685     01C0                     _temp:
   686     01C0                     	ds	4
   687     01C4                     _value_adc:
   688     01C4                     	ds	2
   689                           
   690                           	psect	bssBANK2
   691     0110                     __pbssBANK2:
   692     0110                     _stringBT:
   693     0110                     	ds	50
   694                           
   695                           	psect	clrtext
   696     0804                     clear_ram0:	
   697                           ;	Called with FSR containing the base address, and
   698                           ;	W with the last address+1
   699                           
   700     0804  0064               	clrwdt	;clear the watchdog before getting into this loop
   701     0805                     clrloop0:
   702     0805  0180               	clrf	0	;clear RAM location pointed to by FSR
   703     0806  0A84               	incf	4,f	;increment pointer
   704     0807  0604               	xorwf	4,w	;XOR with final address
   705     0808  1903               	btfsc	3,2	;have we reached the end yet?
   706     0809  3400               	retlw	0	;all done for this memory range, return
   707     080A  0604               	xorwf	4,w	;XOR again to restore value
   708     080B  2805               	goto	clrloop0	;do the next byte
   709                           
   710                           	psect	cstackBANK3
   711     0190                     __pcstackBANK3:
   712     0190                     main@Temperature:
   713                           
   714                           ; 10 bytes @ 0x0
   715     0190                     	ds	10
   716     019A                     main@CHOQUE:
   717                           
   718                           ; 10 bytes @ 0xA
   719     019A                     	ds	10
   720     01A4                     main@a:
   721                           
   722                           ; 4 bytes @ 0x14
   723     01A4                     	ds	4
   724     01A8                     _main$1053:
   725                           
   726                           ; 4 bytes @ 0x18
   727     01A8                     	ds	4
   728     01AC                     _main$1054:
   729                           
   730                           ; 4 bytes @ 0x1C
   731     01AC                     	ds	4
   732     01B0                     _main$1055:
   733                           
   734                           ; 4 bytes @ 0x20
   735     01B0                     	ds	4
   736     01B4                     main@GAS:
   737                           
   738                           ; 4 bytes @ 0x24
   739     01B4                     	ds	4
   740     01B8                     main@MER:
   741                           
   742                           ; 4 bytes @ 0x28
   743     01B8                     	ds	4
   744     01BC                     main@tempC:
   745                           
   746                           ; 4 bytes @ 0x2C
   747     01BC                     	ds	4
   748                           
   749                           	psect	cstackBANK1
   750     00A0                     __pcstackBANK1:
   751     00A0                     ?_eval_poly:
   752     00A0                     ?___flsub:	
   753                           ; 4 bytes @ 0x0
   754                           
   755     00A0                     ___flsub@a:	
   756                           ; 4 bytes @ 0x0
   757                           
   758     00A0                     eval_poly@x:	
   759                           ; 4 bytes @ 0x0
   760                           
   761                           
   762                           ; 4 bytes @ 0x0
   763     00A0                     	ds	4
   764     00A4                     eval_poly@d:
   765     00A4                     ___flsub@b:	
   766                           ; 1 bytes @ 0x4
   767                           
   768                           
   769                           ; 4 bytes @ 0x4
   770     00A4                     	ds	1
   771     00A5                     eval_poly@n:
   772                           
   773                           ; 2 bytes @ 0x5
   774     00A5                     	ds	2
   775     00A7                     ??_eval_poly:
   776                           
   777                           ; 1 bytes @ 0x7
   778     00A7                     	ds	1
   779     00A8                     ?___fltol:
   780     00A8                     ___fltol@f1:	
   781                           ; 4 bytes @ 0x8
   782                           
   783                           
   784                           ; 4 bytes @ 0x8
   785     00A8                     	ds	4
   786     00AC                     ??___fltol:
   787     00AC                     eval_poly@res:	
   788                           ; 1 bytes @ 0xC
   789                           
   790                           
   791                           ; 4 bytes @ 0xC
   792     00AC                     	ds	4
   793     00B0                     ?_sprintf:
   794     00B0                     ?_log:	
   795                           ; 2 bytes @ 0x10
   796                           
   797     00B0                     sprintf@f:	
   798                           ; 4 bytes @ 0x10
   799                           
   800     00B0                     log@x:	
   801                           ; 1 bytes @ 0x10
   802                           
   803                           
   804                           ; 4 bytes @ 0x10
   805     00B0                     	ds	5
   806     00B5                     ??_sprintf:
   807                           
   808                           ; 1 bytes @ 0x15
   809     00B5                     	ds	3
   810     00B8                     sprintf@flag:
   811                           
   812                           ; 1 bytes @ 0x18
   813     00B8                     	ds	1
   814     00B9                     sprintf@prec:
   815                           
   816                           ; 1 bytes @ 0x19
   817     00B9                     	ds	1
   818     00BA                     sprintf@ap:
   819                           
   820                           ; 1 bytes @ 0x1A
   821     00BA                     	ds	1
   822     00BB                     sprintf@val:
   823                           
   824                           ; 2 bytes @ 0x1B
   825     00BB                     	ds	2
   826     00BD                     sprintf@sp:
   827                           
   828                           ; 1 bytes @ 0x1D
   829     00BD                     	ds	1
   830     00BE                     sprintf@c:
   831                           
   832                           ; 1 bytes @ 0x1E
   833     00BE                     	ds	1
   834     00BF                     ??_main:
   835                           
   836                           ; 1 bytes @ 0x1F
   837     00BF                     	ds	4
   838                           
   839                           	psect	cstackCOMMON
   840     0070                     __pcstackCOMMON:
   841     0070                     ?___fleq:
   842     0070                     ?___flge:	
   843                           ; 1 bit 
   844                           
   845     0070                     ?_LCD_Init:	
   846                           ; 1 bit 
   847                           
   848     0070                     ?_LCD_Clear:	
   849                           ; 1 bytes @ 0x0
   850                           
   851     0070                     ?_strcpy:	
   852                           ; 1 bytes @ 0x0
   853                           
   854     0070                     ?_strcat:	
   855                           ; 1 bytes @ 0x0
   856                           
   857     0070                     ?_LCD_Command:	
   858                           ; 1 bytes @ 0x0
   859                           
   860     0070                     ??_LCD_Command:	
   861                           ; 1 bytes @ 0x0
   862                           
   863     0070                     ?_main:	
   864                           ; 1 bytes @ 0x0
   865                           
   866     0070                     ?_LCD_Char:	
   867                           ; 1 bytes @ 0x0
   868                           
   869     0070                     ??_LCD_Char:	
   870                           ; 1 bytes @ 0x0
   871                           
   872     0070                     ?_USART_TxChar:	
   873                           ; 1 bytes @ 0x0
   874                           
   875     0070                     ??_USART_TxChar:	
   876                           ; 1 bytes @ 0x0
   877                           
   878     0070                     ?__Umul8_16:	
   879                           ; 1 bytes @ 0x0
   880                           
   881     0070                     ?___lwdiv:	
   882                           ; 2 bytes @ 0x0
   883                           
   884     0070                     ?___aldiv:	
   885                           ; 2 bytes @ 0x0
   886                           
   887     0070                     ?___xxtofl:	
   888                           ; 4 bytes @ 0x0
   889                           
   890     0070                     USART_TxChar@out:	
   891                           ; 4 bytes @ 0x0
   892                           
   893     0070                     __Umul8_16@multiplicand:	
   894                           ; 1 bytes @ 0x0
   895                           
   896     0070                     ___lwdiv@divisor:	
   897                           ; 1 bytes @ 0x0
   898                           
   899     0070                     strcat@from:	
   900                           ; 2 bytes @ 0x0
   901                           
   902     0070                     strcpy@from:	
   903                           ; 2 bytes @ 0x0
   904                           
   905     0070                     ___aldiv@divisor:	
   906                           ; 2 bytes @ 0x0
   907                           
   908     0070                     ___fleq@ff1:	
   909                           ; 4 bytes @ 0x0
   910                           
   911     0070                     ___flge@ff1:	
   912                           ; 4 bytes @ 0x0
   913                           
   914     0070                     ___xxtofl@val:	
   915                           ; 4 bytes @ 0x0
   916                           
   917                           
   918                           ; 4 bytes @ 0x0
   919     0070                     	ds	1
   920     0071                     ?_USART_SendString:
   921     0071                     USART_SendString@out:	
   922                           ; 1 bytes @ 0x1
   923                           
   924                           
   925                           ; 2 bytes @ 0x1
   926     0071                     	ds	1
   927     0072                     ??_strcpy:
   928     0072                     ??_strcat:	
   929                           ; 1 bytes @ 0x2
   930                           
   931     0072                     ??__Umul8_16:	
   932                           ; 1 bytes @ 0x2
   933                           
   934     0072                     LCD_Command@cmd:	
   935                           ; 1 bytes @ 0x2
   936                           
   937     0072                     LCD_Char@dat:	
   938                           ; 1 bytes @ 0x2
   939                           
   940     0072                     ___lwdiv@dividend:	
   941                           ; 1 bytes @ 0x2
   942                           
   943                           
   944                           ; 2 bytes @ 0x2
   945     0072                     	ds	1
   946     0073                     ??_LCD_Init:
   947     0073                     ??_LCD_Clear:	
   948                           ; 1 bytes @ 0x3
   949                           
   950     0073                     ??_USART_SendString:	
   951                           ; 1 bytes @ 0x3
   952                           
   953     0073                     ?_LCD_String:	
   954                           ; 1 bytes @ 0x3
   955                           
   956     0073                     strcat@cp:	
   957                           ; 1 bytes @ 0x3
   958                           
   959     0073                     strcpy@cp:	
   960                           ; 1 bytes @ 0x3
   961                           
   962     0073                     LCD_String@msg:	
   963                           ; 1 bytes @ 0x3
   964                           
   965                           
   966                           ; 2 bytes @ 0x3
   967     0073                     	ds	1
   968     0074                     ??___lwdiv:
   969     0074                     ??___xxtofl:	
   970                           ; 1 bytes @ 0x4
   971                           
   972     0074                     strcat@to:	
   973                           ; 1 bytes @ 0x4
   974                           
   975     0074                     strcpy@to:	
   976                           ; 1 bytes @ 0x4
   977                           
   978     0074                     __Umul8_16@product:	
   979                           ; 1 bytes @ 0x4
   980                           
   981     0074                     ___aldiv@dividend:	
   982                           ; 2 bytes @ 0x4
   983                           
   984     0074                     ___fleq@ff2:	
   985                           ; 4 bytes @ 0x4
   986                           
   987     0074                     ___flge@ff2:	
   988                           ; 4 bytes @ 0x4
   989                           
   990                           
   991                           ; 4 bytes @ 0x4
   992     0074                     	ds	1
   993     0075                     ?_LCD_String_xy:
   994     0075                     ??_LCD_String:	
   995                           ; 1 bytes @ 0x5
   996                           
   997     0075                     LCD_String_xy@pos:	
   998                           ; 1 bytes @ 0x5
   999                           
  1000     0075                     ___lwdiv@quotient:	
  1001                           ; 1 bytes @ 0x5
  1002                           
  1003                           
  1004                           ; 2 bytes @ 0x5
  1005     0075                     	ds	1
  1006     0076                     LCD_String_xy@msg:
  1007     0076                     __Umul8_16@word_mpld:	
  1008                           ; 2 bytes @ 0x6
  1009                           
  1010                           
  1011                           ; 2 bytes @ 0x6
  1012     0076                     	ds	1
  1013     0077                     ___lwdiv@counter:
  1014                           
  1015                           ; 1 bytes @ 0x7
  1016     0077                     	ds	1
  1017     0078                     ??_LCD_String_xy:
  1018     0078                     ??___aldiv:	
  1019                           ; 1 bytes @ 0x8
  1020                           
  1021     0078                     ??___fleq:	
  1022                           ; 1 bytes @ 0x8
  1023                           
  1024     0078                     ??___flge:	
  1025                           ; 1 bytes @ 0x8
  1026                           
  1027     0078                     ?___lwmod:	
  1028                           ; 1 bytes @ 0x8
  1029                           
  1030     0078                     LCD_String_xy@row:	
  1031                           ; 2 bytes @ 0x8
  1032                           
  1033     0078                     __Umul8_16@multiplier:	
  1034                           ; 1 bytes @ 0x8
  1035                           
  1036     0078                     ___xxtofl@sign:	
  1037                           ; 1 bytes @ 0x8
  1038                           
  1039     0078                     ___lwmod@divisor:	
  1040                           ; 1 bytes @ 0x8
  1041                           
  1042                           
  1043                           ; 2 bytes @ 0x8
  1044     0078                     	ds	1
  1045     0079                     ??_USART_Init:
  1046     0079                     LCD_String_xy@location:	
  1047                           ; 1 bytes @ 0x9
  1048                           
  1049     0079                     ___xxtofl@exp:	
  1050                           ; 1 bytes @ 0x9
  1051                           
  1052     0079                     _USART_Init$1056:	
  1053                           ; 1 bytes @ 0x9
  1054                           
  1055                           
  1056                           ; 4 bytes @ 0x9
  1057     0079                     	ds	1
  1058     007A                     ___lwmod@dividend:
  1059     007A                     ___xxtofl@arg:	
  1060                           ; 2 bytes @ 0xA
  1061                           
  1062                           
  1063                           ; 4 bytes @ 0xA
  1064     007A                     	ds	2
  1065     007C                     ??_frexp:
  1066     007C                     ??___lwmod:	
  1067                           ; 1 bytes @ 0xC
  1068                           
  1069                           
  1070                           ; 1 bytes @ 0xC
  1071     007C                     	ds	1
  1072     007D                     ___lwmod@counter:
  1073                           
  1074                           ; 1 bytes @ 0xD
  1075     007D                     	ds	1
  1076     007E                     ??_log:
  1077     007E                     ??___flsub:	
  1078                           ; 1 bytes @ 0xE
  1079                           
  1080                           
  1081                           	psect	cstackBANK0
  1082     0020                     __pcstackBANK0:	
  1083                           ; 1 bytes @ 0xE
  1084                           
  1085     0020                     ?_frexp:
  1086     0020                     ___aldiv@counter:	
  1087                           ; 4 bytes @ 0x0
  1088                           
  1089     0020                     frexp@value:	
  1090                           ; 1 bytes @ 0x0
  1091                           
  1092                           
  1093                           ; 4 bytes @ 0x0
  1094     0020                     	ds	1
  1095     0021                     ___aldiv@sign:
  1096                           
  1097                           ; 1 bytes @ 0x1
  1098     0021                     	ds	1
  1099     0022                     ___aldiv@quotient:
  1100                           
  1101                           ; 4 bytes @ 0x2
  1102     0022                     	ds	2
  1103     0024                     frexp@eptr:
  1104                           
  1105                           ; 1 bytes @ 0x4
  1106     0024                     	ds	1
  1107     0025                     ?___flmul:
  1108     0025                     ___flmul@b:	
  1109                           ; 4 bytes @ 0x5
  1110                           
  1111                           
  1112                           ; 4 bytes @ 0x5
  1113     0025                     	ds	1
  1114     0026                     ?_USART_Init:
  1115     0026                     USART_Init@baud_rate:	
  1116                           ; 1 bytes @ 0x6
  1117                           
  1118                           
  1119                           ; 4 bytes @ 0x6
  1120     0026                     	ds	3
  1121     0029                     ___flmul@a:
  1122                           
  1123                           ; 4 bytes @ 0x9
  1124     0029                     	ds	4
  1125     002D                     ??___flmul:
  1126                           
  1127                           ; 1 bytes @ 0xD
  1128     002D                     	ds	5
  1129     0032                     ___flmul@sign:
  1130                           
  1131                           ; 1 bytes @ 0x12
  1132     0032                     	ds	1
  1133     0033                     ___flmul@aexp:
  1134                           
  1135                           ; 1 bytes @ 0x13
  1136     0033                     	ds	1
  1137     0034                     ___flmul@grs:
  1138                           
  1139                           ; 4 bytes @ 0x14
  1140     0034                     	ds	4
  1141     0038                     ___flmul@bexp:
  1142                           
  1143                           ; 1 bytes @ 0x18
  1144     0038                     	ds	1
  1145     0039                     ___flmul@prod:
  1146                           
  1147                           ; 4 bytes @ 0x19
  1148     0039                     	ds	4
  1149     003D                     ___flmul@temp:
  1150                           
  1151                           ; 2 bytes @ 0x1D
  1152     003D                     	ds	2
  1153     003F                     ?___fldiv:
  1154     003F                     ___fldiv@a:	
  1155                           ; 4 bytes @ 0x1F
  1156                           
  1157                           
  1158                           ; 4 bytes @ 0x1F
  1159     003F                     	ds	4
  1160     0043                     ___fldiv@b:
  1161                           
  1162                           ; 4 bytes @ 0x23
  1163     0043                     	ds	4
  1164     0047                     ??___fldiv:
  1165                           
  1166                           ; 1 bytes @ 0x27
  1167     0047                     	ds	5
  1168     004C                     ___fldiv@rem:
  1169                           
  1170                           ; 4 bytes @ 0x2C
  1171     004C                     	ds	4
  1172     0050                     ___fldiv@sign:
  1173                           
  1174                           ; 1 bytes @ 0x30
  1175     0050                     	ds	1
  1176     0051                     ___fldiv@new_exp:
  1177                           
  1178                           ; 2 bytes @ 0x31
  1179     0051                     	ds	2
  1180     0053                     ___fldiv@grs:
  1181                           
  1182                           ; 4 bytes @ 0x33
  1183     0053                     	ds	4
  1184     0057                     ___fldiv@bexp:
  1185                           
  1186                           ; 1 bytes @ 0x37
  1187     0057                     	ds	1
  1188     0058                     ___fldiv@aexp:
  1189                           
  1190                           ; 1 bytes @ 0x38
  1191     0058                     	ds	1
  1192     0059                     ?___fladd:
  1193     0059                     ___fladd@b:	
  1194                           ; 4 bytes @ 0x39
  1195                           
  1196                           
  1197                           ; 4 bytes @ 0x39
  1198     0059                     	ds	4
  1199     005D                     ___fladd@a:
  1200                           
  1201                           ; 4 bytes @ 0x3D
  1202     005D                     	ds	4
  1203     0061                     ??___fladd:
  1204                           
  1205                           ; 1 bytes @ 0x41
  1206     0061                     	ds	8
  1207     0069                     ___fladd@signs:
  1208                           
  1209                           ; 1 bytes @ 0x49
  1210     0069                     	ds	1
  1211     006A                     ___fladd@aexp:
  1212                           
  1213                           ; 1 bytes @ 0x4A
  1214     006A                     	ds	1
  1215     006B                     ___fladd@bexp:
  1216                           
  1217                           ; 1 bytes @ 0x4B
  1218     006B                     	ds	1
  1219     006C                     ___fladd@grs:
  1220                           
  1221                           ; 1 bytes @ 0x4C
  1222     006C                     	ds	1
  1223     006D                     ___fltol@sign1:
  1224     006D                     log@exponent:	
  1225                           ; 1 bytes @ 0x4D
  1226                           
  1227                           
  1228                           ; 2 bytes @ 0x4D
  1229     006D                     	ds	1
  1230     006E                     ___fltol@exp1:
  1231                           
  1232                           ; 1 bytes @ 0x4E
  1233     006E                     	ds	1
  1234                           
  1235                           	psect	maintext
  1236     0369                     __pmaintext:	
  1237 ;;
  1238 ;;Main: autosize = 0, tempsize = 4, incstack = 0, save=0
  1239 ;;
  1240 ;; *************** function _main *****************
  1241 ;; Defined at:
  1242 ;;		line 43 in file "Proyecto_Final.c"
  1243 ;; Parameters:    Size  Location     Type
  1244 ;;		None
  1245 ;; Auto vars:     Size  Location     Type
  1246 ;;  CHOQUE         10   10[BANK3 ] unsigned char [10]
  1247 ;;  Temperature    10    0[BANK3 ] unsigned char [10]
  1248 ;;  MER             4   40[BANK3 ] unsigned char [4]
  1249 ;;  GAS             4   36[BANK3 ] unsigned char [4]
  1250 ;;  tempC           4   44[BANK3 ] float 
  1251 ;;  a               4   20[BANK3 ] long 
  1252 ;; Return value:  Size  Location     Type
  1253 ;;                  1    wreg      void 
  1254 ;; Registers used:
  1255 ;;		wreg, fsr0l, fsr0h, status,2, status,0, btemp+1, pclath, cstack
  1256 ;; Tracked objects:
  1257 ;;		On entry : B00/0
  1258 ;;		On exit  : 0/0
  1259 ;;		Unchanged: 0/0
  1260 ;; Data sizes:     COMMON   BANK0   BANK1   BANK3   BANK2
  1261 ;;      Params:         0       0       0       0       0
  1262 ;;      Locals:         0       0       0      48       0
  1263 ;;      Temps:          0       0       4       0       0
  1264 ;;      Totals:         0       0       4      48       0
  1265 ;;Total ram usage:       52 bytes
  1266 ;; Hardware stack levels required when called: 4
  1267 ;; This function calls:
  1268 ;;		_LCD_Clear
  1269 ;;		_LCD_Init
  1270 ;;		_LCD_String
  1271 ;;		_LCD_String_xy
  1272 ;;		_USART_Init
  1273 ;;		_USART_SendString
  1274 ;;		___fladd
  1275 ;;		___fldiv
  1276 ;;		___flge
  1277 ;;		___flsub
  1278 ;;		___fltol
  1279 ;;		___xxtofl
  1280 ;;		_log
  1281 ;;		_sprintf
  1282 ;;		_strcat
  1283 ;;		_strcpy
  1284 ;; This function is called by:
  1285 ;;		Startup code after reset
  1286 ;; This function uses a non-reentrant model
  1287 ;;
  1288                           
  1289     0369                     _main:	
  1290                           ;psect for function _main
  1291                           
  1292     0369                     l3528:	
  1293                           ;incstack = 0
  1294                           ; Regs used in _main: [wreg-fsr0h+status,2+status,0+btemp+1+pclath+cstack]
  1295                           
  1296                           
  1297                           ;Proyecto_Final.c: 45:     OSCCON = 0x71;
  1298     0369  3071               	movlw	113
  1299     036A  1683               	bsf	3,5	;RP0=1, select bank1
  1300     036B  1303               	bcf	3,6	;RP1=0, select bank1
  1301     036C  008F               	movwf	15	;volatile
  1302     036D                     l3530:
  1303                           
  1304                           ;Proyecto_Final.c: 46:     LCD_Init();
  1305     036D  160A  118A  23AF  120A  118A  	fcall	_LCD_Init
  1306     0372                     l3532:
  1307                           
  1308                           ;Proyecto_Final.c: 47:     TRISD=0x00;
  1309     0372  1683               	bsf	3,5	;RP0=1, select bank1
  1310     0373  1303               	bcf	3,6	;RP1=0, select bank1
  1311     0374  0188               	clrf	8	;volatile
  1312     0375                     l3534:
  1313                           
  1314                           ;Proyecto_Final.c: 48:     TRISE=0x00;
  1315     0375  0189               	clrf	9	;volatile
  1316     0376                     l3536:
  1317                           
  1318                           ;Proyecto_Final.c: 49:     TRISA0 = 1;
  1319     0376  1405               	bsf	5,0	;volatile
  1320     0377                     l3538:
  1321                           
  1322                           ;Proyecto_Final.c: 50:     ANSEL = 0x01;
  1323     0377  3001               	movlw	1
  1324     0378  1683               	bsf	3,5	;RP0=1, select bank3
  1325     0379  1703               	bsf	3,6	;RP1=1, select bank3
  1326     037A  0088               	movwf	8	;volatile
  1327     037B                     l3540:
  1328                           
  1329                           ;Proyecto_Final.c: 51:     TRISC1=1;
  1330     037B  1683               	bsf	3,5	;RP0=1, select bank1
  1331     037C  1303               	bcf	3,6	;RP1=0, select bank1
  1332     037D  1487               	bsf	7,1	;volatile
  1333     037E                     l3542:
  1334                           
  1335                           ;Proyecto_Final.c: 52:     TRISC0=1;
  1336     037E  1407               	bsf	7,0	;volatile
  1337     037F                     l3544:
  1338                           
  1339                           ;Proyecto_Final.c: 53:     TRISC3=1;
  1340     037F  1587               	bsf	7,3	;volatile
  1341     0380                     l3546:
  1342                           
  1343                           ;Proyecto_Final.c: 57:     ADCON1bits.ADFM = 1;
  1344     0380  179F               	bsf	31,7	;volatile
  1345     0381                     l3548:
  1346                           
  1347                           ;Proyecto_Final.c: 58:     ADCON1bits.VCFG0 = 0;
  1348     0381  121F               	bcf	31,4	;volatile
  1349     0382                     l3550:
  1350                           
  1351                           ;Proyecto_Final.c: 59:     ADCON1bits.VCFG1 = 0;
  1352     0382  129F               	bcf	31,5	;volatile
  1353     0383                     l3552:
  1354                           
  1355                           ;Proyecto_Final.c: 61:     ADCON0bits.CHS = 0b0000;
  1356     0383  30C3               	movlw	-61
  1357     0384  1283               	bcf	3,5	;RP0=0, select bank0
  1358     0385  1303               	bcf	3,6	;RP1=0, select bank0
  1359     0386  059F               	andwf	31,f	;volatile
  1360     0387                     l3554:
  1361                           
  1362                           ;Proyecto_Final.c: 62:     ADCON0bits.ADCS = 0b01;
  1363     0387  081F               	movf	31,w	;volatile
  1364     0388  393F               	andlw	-193
  1365     0389  3840               	iorlw	64
  1366     038A  009F               	movwf	31	;volatile
  1367     038B                     l3556:
  1368                           
  1369                           ;Proyecto_Final.c: 64:     ADCON0bits.ADON = 1;
  1370     038B  141F               	bsf	31,0	;volatile
  1371     038C                     l3558:
  1372                           
  1373                           ;Proyecto_Final.c: 67:     _delay((unsigned long)((3000)*(8000000/4000.0)));
  1374     038C  301F               	movlw	31
  1375     038D  1683               	bsf	3,5	;RP0=1, select bank1
  1376     038E  1303               	bcf	3,6	;RP1=0, select bank1
  1377     038F  00C1               	movwf	(??_main^(0+128)+2)
  1378     0390  3071               	movlw	113
  1379     0391  00C0               	movwf	(??_main^(0+128)+1)
  1380     0392  301D               	movlw	29
  1381     0393  00BF               	movwf	??_main^(0+128)
  1382     0394                     u5347:
  1383     0394  0BBF               	decfsz	??_main^(0+128),f
  1384     0395  2B94               	goto	u5347
  1385     0396  0BC0               	decfsz	(??_main^(0+128)+1),f
  1386     0397  2B94               	goto	u5347
  1387     0398  0BC1               	decfsz	(??_main^(0+128)+2),f
  1388     0399  2B94               	goto	u5347
  1389     039A  2B9B               	nop2
  1390     039B                     l3560:
  1391                           
  1392                           ;Proyecto_Final.c: 68:     LCD_String_xy(1,0,"DETECTANDO...");
  1393     039B  01F5               	clrf	LCD_String_xy@pos
  1394     039C  306E               	movlw	(low ((STR_1-__stringbase)| (0+32768)))& (0+255)
  1395     039D  00F6               	movwf	LCD_String_xy@msg
  1396     039E  3080               	movlw	128
  1397     039F  00F7               	movwf	LCD_String_xy@msg+1
  1398     03A0  3001               	movlw	1
  1399     03A1  160A  118A  233C  120A  118A  	fcall	_LCD_String_xy
  1400     03A6                     l3562:
  1401                           
  1402                           ;Proyecto_Final.c: 69:     _delay((unsigned long)((2000)*(8000000/4000.0)));
  1403     03A6  3015               	movlw	21
  1404     03A7  1683               	bsf	3,5	;RP0=1, select bank1
  1405     03A8  1303               	bcf	3,6	;RP1=0, select bank1
  1406     03A9  00C1               	movwf	(??_main^(0+128)+2)
  1407     03AA  304B               	movlw	75
  1408     03AB  00C0               	movwf	(??_main^(0+128)+1)
  1409     03AC  30BD               	movlw	189
  1410     03AD  00BF               	movwf	??_main^(0+128)
  1411     03AE                     u5357:
  1412     03AE  0BBF               	decfsz	??_main^(0+128),f
  1413     03AF  2BAE               	goto	u5357
  1414     03B0  0BC0               	decfsz	(??_main^(0+128)+1),f
  1415     03B1  2BAE               	goto	u5357
  1416     03B2  0BC1               	decfsz	(??_main^(0+128)+2),f
  1417     03B3  2BAE               	goto	u5357
  1418     03B4  2BB5               	nop2
  1419     03B5                     l3564:
  1420                           
  1421                           ;Proyecto_Final.c: 70:         LCD_Clear();
  1422     03B5  120A  118A  2014  120A  118A  	fcall	_LCD_Clear
  1423     03BA                     l3566:
  1424                           
  1425                           ;Proyecto_Final.c: 71:         PORTE=0;
  1426     03BA  1283               	bcf	3,5	;RP0=0, select bank0
  1427     03BB  1303               	bcf	3,6	;RP1=0, select bank0
  1428     03BC  0189               	clrf	9	;volatile
  1429     03BD                     l3568:
  1430                           
  1431                           ;Proyecto_Final.c: 72:         PORTD=0;
  1432     03BD  0188               	clrf	8	;volatile
  1433     03BE                     l3570:
  1434                           
  1435                           ;Proyecto_Final.c: 74:     USART_Init(9600);
  1436     03BE  3000               	movlw	0
  1437     03BF  00A9               	movwf	USART_Init@baud_rate+3
  1438     03C0  3000               	movlw	0
  1439     03C1  00A8               	movwf	USART_Init@baud_rate+2
  1440     03C2  3025               	movlw	37
  1441     03C3  00A7               	movwf	USART_Init@baud_rate+1
  1442     03C4  3080               	movlw	128
  1443     03C5  00A6               	movwf	USART_Init@baud_rate
  1444     03C6  160A  118A  24B1  120A  118A  	fcall	_USART_Init
  1445     03CB                     l3572:
  1446                           
  1447                           ;Proyecto_Final.c: 76:     USART_SendString("===============SISTEMA DE MONITOREO DE VEHI
      +                          CULO===============");
  1448     03CB  302F               	movlw	(low ((STR_2-__stringbase)| (0+32768)))& (0+255)
  1449     03CC  00F1               	movwf	USART_SendString@out
  1450     03CD  3080               	movlw	128
  1451     03CE  00F2               	movwf	USART_SendString@out+1
  1452     03CF  160A  118A  2362  120A  118A  	fcall	_USART_SendString
  1453     03D4                     l3574:
  1454                           
  1455                           ;Proyecto_Final.c: 81:         ADCON0bits.GO_DONE = 1;
  1456     03D4  1283               	bcf	3,5	;RP0=0, select bank0
  1457     03D5  1303               	bcf	3,6	;RP1=0, select bank0
  1458     03D6  149F               	bsf	31,1	;volatile
  1459     03D7                     l68:	
  1460                           ;Proyecto_Final.c: 82:         while (ADCON0bits.GO_DONE);
  1461                           
  1462     03D7  189F               	btfsc	31,1	;volatile
  1463     03D8  2BDA               	goto	u5251
  1464     03D9  2BDB               	goto	u5250
  1465     03DA                     u5251:
  1466     03DA  2BD7               	goto	l68
  1467     03DB                     u5250:
  1468     03DB                     l3576:
  1469                           
  1470                           ;Proyecto_Final.c: 83:         value_adc = ADRESH;
  1471     03DB  081E               	movf	30,w	;volatile
  1472     03DC  1683               	bsf	3,5	;RP0=1, select bank1
  1473     03DD  1303               	bcf	3,6	;RP1=0, select bank1
  1474     03DE  00BF               	movwf	??_main^(0+128)
  1475     03DF  01C0               	clrf	(??_main^(0+128)+1)
  1476     03E0  083F               	movf	??_main^(0+128),w
  1477     03E1  1683               	bsf	3,5	;RP0=1, select bank3
  1478     03E2  1703               	bsf	3,6	;RP1=1, select bank3
  1479     03E3  00C4               	movwf	_value_adc^(0+384)
  1480     03E4  1683               	bsf	3,5	;RP0=1, select bank1
  1481     03E5  1303               	bcf	3,6	;RP1=0, select bank1
  1482     03E6  0840               	movf	(??_main+1)^(0+128),w
  1483     03E7  1683               	bsf	3,5	;RP0=1, select bank3
  1484     03E8  1703               	bsf	3,6	;RP1=1, select bank3
  1485     03E9  00C5               	movwf	(_value_adc+1)^(0+384)
  1486     03EA                     l3578:
  1487                           
  1488                           ;Proyecto_Final.c: 84:         value_adc = (value_adc << 8) + ADRESL;
  1489     03EA  0844               	movf	_value_adc^(0+384),w
  1490     03EB  1683               	bsf	3,5	;RP0=1, select bank1
  1491     03EC  1303               	bcf	3,6	;RP1=0, select bank1
  1492     03ED  00C0               	movwf	(??_main^(0+128)+1)
  1493     03EE  01BF               	clrf	??_main^(0+128)
  1494     03EF  081E               	movf	30,w	;volatile
  1495     03F0  073F               	addwf	??_main^(0+128),w
  1496     03F1  00C1               	movwf	(??_main+2)^(0+128)
  1497     03F2  3000               	movlw	0
  1498     03F3  1803               	skipnc
  1499     03F4  3001               	movlw	1
  1500     03F5  0740               	addwf	(??_main+1)^(0+128),w
  1501     03F6  00C2               	movwf	(??_main+3)^(0+128)
  1502     03F7  0841               	movf	(??_main+2)^(0+128),w
  1503     03F8  1683               	bsf	3,5	;RP0=1, select bank3
  1504     03F9  1703               	bsf	3,6	;RP1=1, select bank3
  1505     03FA  00C4               	movwf	_value_adc^(0+384)
  1506     03FB  1683               	bsf	3,5	;RP0=1, select bank1
  1507     03FC  1303               	bcf	3,6	;RP1=0, select bank1
  1508     03FD  0842               	movf	(??_main+3)^(0+128),w
  1509     03FE  1683               	bsf	3,5	;RP0=1, select bank3
  1510     03FF  1703               	bsf	3,6	;RP1=1, select bank3
  1511     0400  00C5               	movwf	(_value_adc+1)^(0+384)
  1512     0401                     l3580:
  1513                           
  1514                           ;Proyecto_Final.c: 85:         temp = value_adc;
  1515     0401  0844               	movf	_value_adc^(0+384),w
  1516     0402  00F0               	movwf	___xxtofl@val
  1517     0403  0845               	movf	(_value_adc+1)^(0+384),w
  1518     0404  00F1               	movwf	___xxtofl@val+1
  1519     0405  01F2               	clrf	___xxtofl@val+2
  1520     0406  01F3               	clrf	___xxtofl@val+3
  1521     0407  3000               	movlw	0
  1522     0408  120A  158A  200C  120A  118A  	fcall	___xxtofl
  1523     040D  0873               	movf	?___xxtofl+3,w
  1524     040E  1683               	bsf	3,5	;RP0=1, select bank3
  1525     040F  1703               	bsf	3,6	;RP1=1, select bank3
  1526     0410  00C3               	movwf	(_temp+3)^(0+384)
  1527     0411  0872               	movf	?___xxtofl+2,w
  1528     0412  00C2               	movwf	(_temp+2)^(0+384)
  1529     0413  0871               	movf	?___xxtofl+1,w
  1530     0414  00C1               	movwf	(_temp+1)^(0+384)
  1531     0415  0870               	movf	?___xxtofl,w
  1532     0416  00C0               	movwf	_temp^(0+384)
  1533     0417                     l3582:
  1534                           
  1535                           ;Proyecto_Final.c: 88:         long a = (long)(1023 - temp);
  1536     0417  3044               	movlw	68
  1537     0418  1683               	bsf	3,5	;RP0=1, select bank1
  1538     0419  1303               	bcf	3,6	;RP1=0, select bank1
  1539     041A  00A7               	movwf	(___flsub@b+3)^(0+128)
  1540     041B  307F               	movlw	127
  1541     041C  00A6               	movwf	(___flsub@b+2)^(0+128)
  1542     041D  30C0               	movlw	192
  1543     041E  00A5               	movwf	(___flsub@b+1)^(0+128)
  1544     041F  3000               	movlw	0
  1545     0420  00A4               	movwf	___flsub@b^(0+128)
  1546     0421  1683               	bsf	3,5	;RP0=1, select bank3
  1547     0422  1703               	bsf	3,6	;RP1=1, select bank3
  1548     0423  0843               	movf	(_temp+3)^(0+384),w
  1549     0424  1683               	bsf	3,5	;RP0=1, select bank1
  1550     0425  1303               	bcf	3,6	;RP1=0, select bank1
  1551     0426  00A3               	movwf	(___flsub@a+3)^(0+128)
  1552     0427  1683               	bsf	3,5	;RP0=1, select bank3
  1553     0428  1703               	bsf	3,6	;RP1=1, select bank3
  1554     0429  0842               	movf	(_temp+2)^(0+384),w
  1555     042A  1683               	bsf	3,5	;RP0=1, select bank1
  1556     042B  1303               	bcf	3,6	;RP1=0, select bank1
  1557     042C  00A2               	movwf	(___flsub@a+2)^(0+128)
  1558     042D  1683               	bsf	3,5	;RP0=1, select bank3
  1559     042E  1703               	bsf	3,6	;RP1=1, select bank3
  1560     042F  0841               	movf	(_temp+1)^(0+384),w
  1561     0430  1683               	bsf	3,5	;RP0=1, select bank1
  1562     0431  1303               	bcf	3,6	;RP1=0, select bank1
  1563     0432  00A1               	movwf	(___flsub@a+1)^(0+128)
  1564     0433  1683               	bsf	3,5	;RP0=1, select bank3
  1565     0434  1703               	bsf	3,6	;RP1=1, select bank3
  1566     0435  0840               	movf	_temp^(0+384),w
  1567     0436  1683               	bsf	3,5	;RP0=1, select bank1
  1568     0437  1303               	bcf	3,6	;RP1=0, select bank1
  1569     0438  00A0               	movwf	___flsub@a^(0+128)
  1570     0439  160A  118A  2587  120A  118A  	fcall	___flsub
  1571     043E  1683               	bsf	3,5	;RP0=1, select bank1
  1572     043F  1303               	bcf	3,6	;RP1=0, select bank1
  1573     0440  0823               	movf	(?___flsub+3)^(0+128),w
  1574     0441  00AB               	movwf	(___fltol@f1+3)^(0+128)
  1575     0442  0822               	movf	(?___flsub+2)^(0+128),w
  1576     0443  00AA               	movwf	(___fltol@f1+2)^(0+128)
  1577     0444  0821               	movf	(?___flsub+1)^(0+128),w
  1578     0445  00A9               	movwf	(___fltol@f1+1)^(0+128)
  1579     0446  0820               	movf	?___flsub^(0+128),w
  1580     0447  00A8               	movwf	___fltol@f1^(0+128)
  1581     0448  160A  118A  2633  120A  118A  	fcall	___fltol
  1582     044D  1683               	bsf	3,5	;RP0=1, select bank1
  1583     044E  1303               	bcf	3,6	;RP1=0, select bank1
  1584     044F  082B               	movf	(?___fltol+3)^(0+128),w
  1585     0450  1683               	bsf	3,5	;RP0=1, select bank3
  1586     0451  1703               	bsf	3,6	;RP1=1, select bank3
  1587     0452  00A7               	movwf	(main@a+3)^(0+384)
  1588     0453  1683               	bsf	3,5	;RP0=1, select bank1
  1589     0454  1303               	bcf	3,6	;RP1=0, select bank1
  1590     0455  082A               	movf	(?___fltol+2)^(0+128),w
  1591     0456  1683               	bsf	3,5	;RP0=1, select bank3
  1592     0457  1703               	bsf	3,6	;RP1=1, select bank3
  1593     0458  00A6               	movwf	(main@a+2)^(0+384)
  1594     0459  1683               	bsf	3,5	;RP0=1, select bank1
  1595     045A  1303               	bcf	3,6	;RP1=0, select bank1
  1596     045B  0829               	movf	(?___fltol+1)^(0+128),w
  1597     045C  1683               	bsf	3,5	;RP0=1, select bank3
  1598     045D  1703               	bsf	3,6	;RP1=1, select bank3
  1599     045E  00A5               	movwf	(main@a+1)^(0+384)
  1600     045F  1683               	bsf	3,5	;RP0=1, select bank1
  1601     0460  1303               	bcf	3,6	;RP1=0, select bank1
  1602     0461  0828               	movf	?___fltol^(0+128),w
  1603     0462  1683               	bsf	3,5	;RP0=1, select bank3
  1604     0463  1703               	bsf	3,6	;RP1=1, select bank3
  1605     0464  00A4               	movwf	main@a^(0+384)
  1606     0465                     l3584:
  1607                           
  1608                           ;Proyecto_Final.c: 89:         float tempC = (float)(4090 /(log((1025.0 * 10/ a - 10) / 
      +                          10) + 4090 / 298.0) - 273.0);
  1609     0465  30C1               	movlw	193
  1610     0466  1283               	bcf	3,5	;RP0=0, select bank0
  1611     0467  1303               	bcf	3,6	;RP1=0, select bank0
  1612     0468  00DC               	movwf	___fladd@b+3
  1613     0469  3020               	movlw	32
  1614     046A  00DB               	movwf	___fladd@b+2
  1615     046B  3000               	movlw	0
  1616     046C  00DA               	movwf	___fladd@b+1
  1617     046D  3000               	movlw	0
  1618     046E  00D9               	movwf	___fladd@b
  1619     046F  1683               	bsf	3,5	;RP0=1, select bank3
  1620     0470  1703               	bsf	3,6	;RP1=1, select bank3
  1621     0471  0827               	movf	(main@a+3)^(0+384),w
  1622     0472  00F3               	movwf	___xxtofl@val+3
  1623     0473  0826               	movf	(main@a+2)^(0+384),w
  1624     0474  00F2               	movwf	___xxtofl@val+2
  1625     0475  0825               	movf	(main@a+1)^(0+384),w
  1626     0476  00F1               	movwf	___xxtofl@val+1
  1627     0477  0824               	movf	main@a^(0+384),w
  1628     0478  00F0               	movwf	___xxtofl@val
  1629     0479  3001               	movlw	1
  1630     047A  120A  158A  200C  120A  118A  	fcall	___xxtofl
  1631     047F  0873               	movf	?___xxtofl+3,w
  1632     0480  1283               	bcf	3,5	;RP0=0, select bank0
  1633     0481  1303               	bcf	3,6	;RP1=0, select bank0
  1634     0482  00C2               	movwf	___fldiv@a+3
  1635     0483  0872               	movf	?___xxtofl+2,w
  1636     0484  00C1               	movwf	___fldiv@a+2
  1637     0485  0871               	movf	?___xxtofl+1,w
  1638     0486  00C0               	movwf	___fldiv@a+1
  1639     0487  0870               	movf	?___xxtofl,w
  1640     0488  00BF               	movwf	___fldiv@a
  1641     0489  3046               	movlw	70
  1642     048A  00C6               	movwf	___fldiv@b+3
  1643     048B  3020               	movlw	32
  1644     048C  00C5               	movwf	___fldiv@b+2
  1645     048D  3028               	movlw	40
  1646     048E  00C4               	movwf	___fldiv@b+1
  1647     048F  3000               	movlw	0
  1648     0490  00C3               	movwf	___fldiv@b
  1649     0491  120A  158A  23D5  120A  118A  	fcall	___fldiv
  1650     0496  1283               	bcf	3,5	;RP0=0, select bank0
  1651     0497  1303               	bcf	3,6	;RP1=0, select bank0
  1652     0498  0842               	movf	?___fldiv+3,w
  1653     0499  00E0               	movwf	___fladd@a+3
  1654     049A  0841               	movf	?___fldiv+2,w
  1655     049B  00DF               	movwf	___fladd@a+2
  1656     049C  0840               	movf	?___fldiv+1,w
  1657     049D  00DE               	movwf	___fladd@a+1
  1658     049E  083F               	movf	?___fldiv,w
  1659     049F  00DD               	movwf	___fladd@a
  1660     04A0  120A  158A  25A8  120A  118A  	fcall	___fladd
  1661     04A5  1283               	bcf	3,5	;RP0=0, select bank0
  1662     04A6  1303               	bcf	3,6	;RP1=0, select bank0
  1663     04A7  085C               	movf	?___fladd+3,w
  1664     04A8  1683               	bsf	3,5	;RP0=1, select bank3
  1665     04A9  1703               	bsf	3,6	;RP1=1, select bank3
  1666     04AA  00AB               	movwf	(_main$1053+3)^(0+384)
  1667     04AB  1283               	bcf	3,5	;RP0=0, select bank0
  1668     04AC  1303               	bcf	3,6	;RP1=0, select bank0
  1669     04AD  085B               	movf	?___fladd+2,w
  1670     04AE  1683               	bsf	3,5	;RP0=1, select bank3
  1671     04AF  1703               	bsf	3,6	;RP1=1, select bank3
  1672     04B0  00AA               	movwf	(_main$1053+2)^(0+384)
  1673     04B1  1283               	bcf	3,5	;RP0=0, select bank0
  1674     04B2  1303               	bcf	3,6	;RP1=0, select bank0
  1675     04B3  085A               	movf	?___fladd+1,w
  1676     04B4  1683               	bsf	3,5	;RP0=1, select bank3
  1677     04B5  1703               	bsf	3,6	;RP1=1, select bank3
  1678     04B6  00A9               	movwf	(_main$1053+1)^(0+384)
  1679     04B7  1283               	bcf	3,5	;RP0=0, select bank0
  1680     04B8  1303               	bcf	3,6	;RP1=0, select bank0
  1681     04B9  0859               	movf	?___fladd,w
  1682     04BA  1683               	bsf	3,5	;RP0=1, select bank3
  1683     04BB  1703               	bsf	3,6	;RP1=1, select bank3
  1684     04BC  00A8               	movwf	_main$1053^(0+384)
  1685     04BD                     l3586:
  1686                           
  1687                           ;Proyecto_Final.c: 89:         float tempC = (float)(4090 /(log((1025.0 * 10/ a - 10) / 
      +                          10) + 4090 / 298.0) - 273.0);
  1688     04BD  3041               	movlw	65
  1689     04BE  1283               	bcf	3,5	;RP0=0, select bank0
  1690     04BF  1303               	bcf	3,6	;RP1=0, select bank0
  1691     04C0  00C2               	movwf	___fldiv@a+3
  1692     04C1  3020               	movlw	32
  1693     04C2  00C1               	movwf	___fldiv@a+2
  1694     04C3  3000               	movlw	0
  1695     04C4  00C0               	movwf	___fldiv@a+1
  1696     04C5  3000               	movlw	0
  1697     04C6  00BF               	movwf	___fldiv@a
  1698     04C7  1683               	bsf	3,5	;RP0=1, select bank3
  1699     04C8  1703               	bsf	3,6	;RP1=1, select bank3
  1700     04C9  082B               	movf	(_main$1053+3)^(0+384),w
  1701     04CA  1283               	bcf	3,5	;RP0=0, select bank0
  1702     04CB  1303               	bcf	3,6	;RP1=0, select bank0
  1703     04CC  00C6               	movwf	___fldiv@b+3
  1704     04CD  1683               	bsf	3,5	;RP0=1, select bank3
  1705     04CE  1703               	bsf	3,6	;RP1=1, select bank3
  1706     04CF  082A               	movf	(_main$1053+2)^(0+384),w
  1707     04D0  1283               	bcf	3,5	;RP0=0, select bank0
  1708     04D1  1303               	bcf	3,6	;RP1=0, select bank0
  1709     04D2  00C5               	movwf	___fldiv@b+2
  1710     04D3  1683               	bsf	3,5	;RP0=1, select bank3
  1711     04D4  1703               	bsf	3,6	;RP1=1, select bank3
  1712     04D5  0829               	movf	(_main$1053+1)^(0+384),w
  1713     04D6  1283               	bcf	3,5	;RP0=0, select bank0
  1714     04D7  1303               	bcf	3,6	;RP1=0, select bank0
  1715     04D8  00C4               	movwf	___fldiv@b+1
  1716     04D9  1683               	bsf	3,5	;RP0=1, select bank3
  1717     04DA  1703               	bsf	3,6	;RP1=1, select bank3
  1718     04DB  0828               	movf	_main$1053^(0+384),w
  1719     04DC  1283               	bcf	3,5	;RP0=0, select bank0
  1720     04DD  1303               	bcf	3,6	;RP1=0, select bank0
  1721     04DE  00C3               	movwf	___fldiv@b
  1722     04DF  120A  158A  23D5  120A  118A  	fcall	___fldiv
  1723     04E4  1283               	bcf	3,5	;RP0=0, select bank0
  1724     04E5  1303               	bcf	3,6	;RP1=0, select bank0
  1725     04E6  0842               	movf	?___fldiv+3,w
  1726     04E7  1683               	bsf	3,5	;RP0=1, select bank1
  1727     04E8  1303               	bcf	3,6	;RP1=0, select bank1
  1728     04E9  00B3               	movwf	(log@x+3)^(0+128)
  1729     04EA  1283               	bcf	3,5	;RP0=0, select bank0
  1730     04EB  1303               	bcf	3,6	;RP1=0, select bank0
  1731     04EC  0841               	movf	?___fldiv+2,w
  1732     04ED  1683               	bsf	3,5	;RP0=1, select bank1
  1733     04EE  1303               	bcf	3,6	;RP1=0, select bank1
  1734     04EF  00B2               	movwf	(log@x+2)^(0+128)
  1735     04F0  1283               	bcf	3,5	;RP0=0, select bank0
  1736     04F1  1303               	bcf	3,6	;RP1=0, select bank0
  1737     04F2  0840               	movf	?___fldiv+1,w
  1738     04F3  1683               	bsf	3,5	;RP0=1, select bank1
  1739     04F4  1303               	bcf	3,6	;RP1=0, select bank1
  1740     04F5  00B1               	movwf	(log@x+1)^(0+128)
  1741     04F6  1283               	bcf	3,5	;RP0=0, select bank0
  1742     04F7  1303               	bcf	3,6	;RP1=0, select bank0
  1743     04F8  083F               	movf	?___fldiv,w
  1744     04F9  1683               	bsf	3,5	;RP0=1, select bank1
  1745     04FA  1303               	bcf	3,6	;RP1=0, select bank1
  1746     04FB  00B0               	movwf	log@x^(0+128)
  1747     04FC  120A  158A  228F  120A  118A  	fcall	_log
  1748     0501  1683               	bsf	3,5	;RP0=1, select bank1
  1749     0502  1303               	bcf	3,6	;RP1=0, select bank1
  1750     0503  0833               	movf	(?_log+3)^(0+128),w
  1751     0504  1683               	bsf	3,5	;RP0=1, select bank3
  1752     0505  1703               	bsf	3,6	;RP1=1, select bank3
  1753     0506  00AF               	movwf	(_main$1054+3)^(0+384)
  1754     0507  1683               	bsf	3,5	;RP0=1, select bank1
  1755     0508  1303               	bcf	3,6	;RP1=0, select bank1
  1756     0509  0832               	movf	(?_log+2)^(0+128),w
  1757     050A  1683               	bsf	3,5	;RP0=1, select bank3
  1758     050B  1703               	bsf	3,6	;RP1=1, select bank3
  1759     050C  00AE               	movwf	(_main$1054+2)^(0+384)
  1760     050D  1683               	bsf	3,5	;RP0=1, select bank1
  1761     050E  1303               	bcf	3,6	;RP1=0, select bank1
  1762     050F  0831               	movf	(?_log+1)^(0+128),w
  1763     0510  1683               	bsf	3,5	;RP0=1, select bank3
  1764     0511  1703               	bsf	3,6	;RP1=1, select bank3
  1765     0512  00AD               	movwf	(_main$1054+1)^(0+384)
  1766     0513  1683               	bsf	3,5	;RP0=1, select bank1
  1767     0514  1303               	bcf	3,6	;RP1=0, select bank1
  1768     0515  0830               	movf	?_log^(0+128),w
  1769     0516  1683               	bsf	3,5	;RP0=1, select bank3
  1770     0517  1703               	bsf	3,6	;RP1=1, select bank3
  1771     0518  00AC               	movwf	_main$1054^(0+384)
  1772     0519                     l3588:
  1773                           
  1774                           ;Proyecto_Final.c: 89:         float tempC = (float)(4090 /(log((1025.0 * 10/ a - 10) / 
      +                          10) + 4090 / 298.0) - 273.0);
  1775     0519  3041               	movlw	65
  1776     051A  1283               	bcf	3,5	;RP0=0, select bank0
  1777     051B  1303               	bcf	3,6	;RP1=0, select bank0
  1778     051C  00DC               	movwf	___fladd@b+3
  1779     051D  305B               	movlw	91
  1780     051E  00DB               	movwf	___fladd@b+2
  1781     051F  3098               	movlw	152
  1782     0520  00DA               	movwf	___fladd@b+1
  1783     0521  30EA               	movlw	234
  1784     0522  00D9               	movwf	___fladd@b
  1785     0523  1683               	bsf	3,5	;RP0=1, select bank3
  1786     0524  1703               	bsf	3,6	;RP1=1, select bank3
  1787     0525  082F               	movf	(_main$1054+3)^(0+384),w
  1788     0526  1283               	bcf	3,5	;RP0=0, select bank0
  1789     0527  1303               	bcf	3,6	;RP1=0, select bank0
  1790     0528  00E0               	movwf	___fladd@a+3
  1791     0529  1683               	bsf	3,5	;RP0=1, select bank3
  1792     052A  1703               	bsf	3,6	;RP1=1, select bank3
  1793     052B  082E               	movf	(_main$1054+2)^(0+384),w
  1794     052C  1283               	bcf	3,5	;RP0=0, select bank0
  1795     052D  1303               	bcf	3,6	;RP1=0, select bank0
  1796     052E  00DF               	movwf	___fladd@a+2
  1797     052F  1683               	bsf	3,5	;RP0=1, select bank3
  1798     0530  1703               	bsf	3,6	;RP1=1, select bank3
  1799     0531  082D               	movf	(_main$1054+1)^(0+384),w
  1800     0532  1283               	bcf	3,5	;RP0=0, select bank0
  1801     0533  1303               	bcf	3,6	;RP1=0, select bank0
  1802     0534  00DE               	movwf	___fladd@a+1
  1803     0535  1683               	bsf	3,5	;RP0=1, select bank3
  1804     0536  1703               	bsf	3,6	;RP1=1, select bank3
  1805     0537  082C               	movf	_main$1054^(0+384),w
  1806     0538  1283               	bcf	3,5	;RP0=0, select bank0
  1807     0539  1303               	bcf	3,6	;RP1=0, select bank0
  1808     053A  00DD               	movwf	___fladd@a
  1809     053B  120A  158A  25A8  120A  118A  	fcall	___fladd
  1810     0540  1283               	bcf	3,5	;RP0=0, select bank0
  1811     0541  1303               	bcf	3,6	;RP1=0, select bank0
  1812     0542  085C               	movf	?___fladd+3,w
  1813     0543  00C2               	movwf	___fldiv@a+3
  1814     0544  085B               	movf	?___fladd+2,w
  1815     0545  00C1               	movwf	___fldiv@a+2
  1816     0546  085A               	movf	?___fladd+1,w
  1817     0547  00C0               	movwf	___fldiv@a+1
  1818     0548  0859               	movf	?___fladd,w
  1819     0549  00BF               	movwf	___fldiv@a
  1820     054A  3045               	movlw	69
  1821     054B  00C6               	movwf	___fldiv@b+3
  1822     054C  307F               	movlw	127
  1823     054D  00C5               	movwf	___fldiv@b+2
  1824     054E  30A0               	movlw	160
  1825     054F  00C4               	movwf	___fldiv@b+1
  1826     0550  3000               	movlw	0
  1827     0551  00C3               	movwf	___fldiv@b
  1828     0552  120A  158A  23D5  120A  118A  	fcall	___fldiv
  1829     0557  1283               	bcf	3,5	;RP0=0, select bank0
  1830     0558  1303               	bcf	3,6	;RP1=0, select bank0
  1831     0559  0842               	movf	?___fldiv+3,w
  1832     055A  1683               	bsf	3,5	;RP0=1, select bank3
  1833     055B  1703               	bsf	3,6	;RP1=1, select bank3
  1834     055C  00B3               	movwf	(_main$1055+3)^(0+384)
  1835     055D  1283               	bcf	3,5	;RP0=0, select bank0
  1836     055E  1303               	bcf	3,6	;RP1=0, select bank0
  1837     055F  0841               	movf	?___fldiv+2,w
  1838     0560  1683               	bsf	3,5	;RP0=1, select bank3
  1839     0561  1703               	bsf	3,6	;RP1=1, select bank3
  1840     0562  00B2               	movwf	(_main$1055+2)^(0+384)
  1841     0563  1283               	bcf	3,5	;RP0=0, select bank0
  1842     0564  1303               	bcf	3,6	;RP1=0, select bank0
  1843     0565  0840               	movf	?___fldiv+1,w
  1844     0566  1683               	bsf	3,5	;RP0=1, select bank3
  1845     0567  1703               	bsf	3,6	;RP1=1, select bank3
  1846     0568  00B1               	movwf	(_main$1055+1)^(0+384)
  1847     0569  1283               	bcf	3,5	;RP0=0, select bank0
  1848     056A  1303               	bcf	3,6	;RP1=0, select bank0
  1849     056B  083F               	movf	?___fldiv,w
  1850     056C  1683               	bsf	3,5	;RP0=1, select bank3
  1851     056D  1703               	bsf	3,6	;RP1=1, select bank3
  1852     056E  00B0               	movwf	_main$1055^(0+384)
  1853     056F                     l3590:
  1854                           
  1855                           ;Proyecto_Final.c: 89:         float tempC = (float)(4090 /(log((1025.0 * 10/ a - 10) / 
      +                          10) + 4090 / 298.0) - 273.0);
  1856     056F  30C3               	movlw	195
  1857     0570  1283               	bcf	3,5	;RP0=0, select bank0
  1858     0571  1303               	bcf	3,6	;RP1=0, select bank0
  1859     0572  00DC               	movwf	___fladd@b+3
  1860     0573  3088               	movlw	136
  1861     0574  00DB               	movwf	___fladd@b+2
  1862     0575  3080               	movlw	128
  1863     0576  00DA               	movwf	___fladd@b+1
  1864     0577  3000               	movlw	0
  1865     0578  00D9               	movwf	___fladd@b
  1866     0579  1683               	bsf	3,5	;RP0=1, select bank3
  1867     057A  1703               	bsf	3,6	;RP1=1, select bank3
  1868     057B  0833               	movf	(_main$1055+3)^(0+384),w
  1869     057C  1283               	bcf	3,5	;RP0=0, select bank0
  1870     057D  1303               	bcf	3,6	;RP1=0, select bank0
  1871     057E  00E0               	movwf	___fladd@a+3
  1872     057F  1683               	bsf	3,5	;RP0=1, select bank3
  1873     0580  1703               	bsf	3,6	;RP1=1, select bank3
  1874     0581  0832               	movf	(_main$1055+2)^(0+384),w
  1875     0582  1283               	bcf	3,5	;RP0=0, select bank0
  1876     0583  1303               	bcf	3,6	;RP1=0, select bank0
  1877     0584  00DF               	movwf	___fladd@a+2
  1878     0585  1683               	bsf	3,5	;RP0=1, select bank3
  1879     0586  1703               	bsf	3,6	;RP1=1, select bank3
  1880     0587  0831               	movf	(_main$1055+1)^(0+384),w
  1881     0588  1283               	bcf	3,5	;RP0=0, select bank0
  1882     0589  1303               	bcf	3,6	;RP1=0, select bank0
  1883     058A  00DE               	movwf	___fladd@a+1
  1884     058B  1683               	bsf	3,5	;RP0=1, select bank3
  1885     058C  1703               	bsf	3,6	;RP1=1, select bank3
  1886     058D  0830               	movf	_main$1055^(0+384),w
  1887     058E  1283               	bcf	3,5	;RP0=0, select bank0
  1888     058F  1303               	bcf	3,6	;RP1=0, select bank0
  1889     0590  00DD               	movwf	___fladd@a
  1890     0591  120A  158A  25A8  120A  118A  	fcall	___fladd
  1891     0596  1283               	bcf	3,5	;RP0=0, select bank0
  1892     0597  1303               	bcf	3,6	;RP1=0, select bank0
  1893     0598  085C               	movf	?___fladd+3,w
  1894     0599  1683               	bsf	3,5	;RP0=1, select bank3
  1895     059A  1703               	bsf	3,6	;RP1=1, select bank3
  1896     059B  00BF               	movwf	(main@tempC+3)^(0+384)
  1897     059C  1283               	bcf	3,5	;RP0=0, select bank0
  1898     059D  1303               	bcf	3,6	;RP1=0, select bank0
  1899     059E  085B               	movf	?___fladd+2,w
  1900     059F  1683               	bsf	3,5	;RP0=1, select bank3
  1901     05A0  1703               	bsf	3,6	;RP1=1, select bank3
  1902     05A1  00BE               	movwf	(main@tempC+2)^(0+384)
  1903     05A2  1283               	bcf	3,5	;RP0=0, select bank0
  1904     05A3  1303               	bcf	3,6	;RP1=0, select bank0
  1905     05A4  085A               	movf	?___fladd+1,w
  1906     05A5  1683               	bsf	3,5	;RP0=1, select bank3
  1907     05A6  1703               	bsf	3,6	;RP1=1, select bank3
  1908     05A7  00BD               	movwf	(main@tempC+1)^(0+384)
  1909     05A8  1283               	bcf	3,5	;RP0=0, select bank0
  1910     05A9  1303               	bcf	3,6	;RP1=0, select bank0
  1911     05AA  0859               	movf	?___fladd,w
  1912     05AB  1683               	bsf	3,5	;RP0=1, select bank3
  1913     05AC  1703               	bsf	3,6	;RP1=1, select bank3
  1914     05AD  00BC               	movwf	main@tempC^(0+384)
  1915     05AE                     l3592:
  1916                           
  1917                           ;Proyecto_Final.c: 93:         char Temperature [10];;Proyecto_Final.c: 94:         spri
      +                          ntf(Temperature, "%d%cC", (int)tempC,0xdf );
  1918     05AE  3086               	movlw	(low ((STR_3-__stringbase)| (0+32768)))& (0+255)
  1919     05AF  1683               	bsf	3,5	;RP0=1, select bank1
  1920     05B0  1303               	bcf	3,6	;RP1=0, select bank1
  1921     05B1  00B0               	movwf	sprintf@f^(0+128)
  1922     05B2  1683               	bsf	3,5	;RP0=1, select bank3
  1923     05B3  1703               	bsf	3,6	;RP1=1, select bank3
  1924     05B4  083F               	movf	(main@tempC+3)^(0+384),w
  1925     05B5  1683               	bsf	3,5	;RP0=1, select bank1
  1926     05B6  1303               	bcf	3,6	;RP1=0, select bank1
  1927     05B7  00AB               	movwf	(___fltol@f1+3)^(0+128)
  1928     05B8  1683               	bsf	3,5	;RP0=1, select bank3
  1929     05B9  1703               	bsf	3,6	;RP1=1, select bank3
  1930     05BA  083E               	movf	(main@tempC+2)^(0+384),w
  1931     05BB  1683               	bsf	3,5	;RP0=1, select bank1
  1932     05BC  1303               	bcf	3,6	;RP1=0, select bank1
  1933     05BD  00AA               	movwf	(___fltol@f1+2)^(0+128)
  1934     05BE  1683               	bsf	3,5	;RP0=1, select bank3
  1935     05BF  1703               	bsf	3,6	;RP1=1, select bank3
  1936     05C0  083D               	movf	(main@tempC+1)^(0+384),w
  1937     05C1  1683               	bsf	3,5	;RP0=1, select bank1
  1938     05C2  1303               	bcf	3,6	;RP1=0, select bank1
  1939     05C3  00A9               	movwf	(___fltol@f1+1)^(0+128)
  1940     05C4  1683               	bsf	3,5	;RP0=1, select bank3
  1941     05C5  1703               	bsf	3,6	;RP1=1, select bank3
  1942     05C6  083C               	movf	main@tempC^(0+384),w
  1943     05C7  1683               	bsf	3,5	;RP0=1, select bank1
  1944     05C8  1303               	bcf	3,6	;RP1=0, select bank1
  1945     05C9  00A8               	movwf	___fltol@f1^(0+128)
  1946     05CA  160A  118A  2633  120A  118A  	fcall	___fltol
  1947     05CF  1683               	bsf	3,5	;RP0=1, select bank1
  1948     05D0  1303               	bcf	3,6	;RP1=0, select bank1
  1949     05D1  0829               	movf	(?___fltol+1)^(0+128),w
  1950     05D2  00B2               	movwf	((?_sprintf+1)^(0+128)+1)
  1951     05D3  0828               	movf	?___fltol^(0+128),w
  1952     05D4  00B1               	movwf	(?_sprintf^(0+128)+1)
  1953     05D5  30DF               	movlw	223
  1954     05D6  00B3               	movwf	(?_sprintf^(0+128)+3)
  1955     05D7  3000               	movlw	0
  1956     05D8  00B4               	movwf	(?_sprintf^(0+128)+4)
  1957     05D9  3090               	movlw	(low (main@Temperature| (0+256)))& (0+255)
  1958     05DA  120A  158A  219E  120A  118A  	fcall	_sprintf
  1959     05DF                     l3594:
  1960                           
  1961                           ;Proyecto_Final.c: 95:         LCD_String_xy(1,0,"T:");
  1962     05DF  01F5               	clrf	LCD_String_xy@pos
  1963     05E0  30A2               	movlw	(low ((STR_4-__stringbase)| (0+32768)))& (0+255)
  1964     05E1  00F6               	movwf	LCD_String_xy@msg
  1965     05E2  3080               	movlw	128
  1966     05E3  00F7               	movwf	LCD_String_xy@msg+1
  1967     05E4  3001               	movlw	1
  1968     05E5  160A  118A  233C  120A  118A  	fcall	_LCD_String_xy
  1969     05EA                     l3596:
  1970                           
  1971                           ;Proyecto_Final.c: 96:         LCD_String(Temperature);
  1972     05EA  3090               	movlw	(low (main@Temperature| (0+256)))& (0+255)
  1973     05EB  00F3               	movwf	LCD_String@msg
  1974     05EC  3001               	movlw	1
  1975     05ED  00F4               	movwf	LCD_String@msg+1
  1976     05EE  160A  118A  2316  120A  118A  	fcall	_LCD_String
  1977     05F3                     l3598:
  1978                           
  1979                           ;Proyecto_Final.c: 97:         LCD_String("  ");
  1980     05F3  309F               	movlw	(low ((STR_5-__stringbase)| (0+32768)))& (0+255)
  1981     05F4  00F3               	movwf	LCD_String@msg
  1982     05F5  3080               	movlw	128
  1983     05F6  00F4               	movwf	LCD_String@msg+1
  1984     05F7  160A  118A  2316  120A  118A  	fcall	_LCD_String
  1985     05FC                     l3600:
  1986                           
  1987                           ;Proyecto_Final.c: 99:         strcpy(stringBT,Temperature);
  1988     05FC  3090               	movlw	(low (main@Temperature| (0+256)))& (0+255)
  1989     05FD  00F0               	movwf	strcpy@from
  1990     05FE  3001               	movlw	1
  1991     05FF  00F1               	movwf	strcpy@from+1
  1992     0600  3010               	movlw	(low (_stringBT| (0+256)))& (0+255)
  1993     0601  160A  118A  22F1  120A  118A  	fcall	_strcpy
  1994     0606                     l3602:
  1995                           
  1996                           ;Proyecto_Final.c: 100:         strcat(stringBT,",");
  1997     0606  30A5               	movlw	(low ((STR_6-__stringbase)| (0+32768)))& (0+255)
  1998     0607  00F0               	movwf	strcat@from
  1999     0608  3080               	movlw	128
  2000     0609  00F1               	movwf	strcat@from+1
  2001     060A  3010               	movlw	(low (_stringBT| (0+256)))& (0+255)
  2002     060B  160A  118A  23D9  120A  118A  	fcall	_strcat
  2003     0610                     l3604:
  2004                           
  2005                           ;Proyecto_Final.c: 103:         char GAS [4];;Proyecto_Final.c: 104:         if(PORTCbit
      +                          s.RC1==1)
  2006     0610  1283               	bcf	3,5	;RP0=0, select bank0
  2007     0611  1303               	bcf	3,6	;RP1=0, select bank0
  2008     0612  1C87               	btfss	7,1	;volatile
  2009     0613  2E15               	goto	u5261
  2010     0614  2E16               	goto	u5260
  2011     0615                     u5261:
  2012     0615  2E40               	goto	l71
  2013     0616                     u5260:
  2014     0616                     l3606:
  2015                           
  2016                           ;Proyecto_Final.c: 105:         {;Proyecto_Final.c: 106:             strcpy(GAS,"S-G");
  2017     0616  3094               	movlw	(low ((STR_7-__stringbase)| (0+32768)))& (0+255)
  2018     0617  00F0               	movwf	strcpy@from
  2019     0618  3080               	movlw	128
  2020     0619  00F1               	movwf	strcpy@from+1
  2021     061A  30B4               	movlw	(low (main@GAS| (0+256)))& (0+255)
  2022     061B  160A  118A  22F1  120A  118A  	fcall	_strcpy
  2023                           
  2024                           ;Proyecto_Final.c: 108:             LCD_String_xy(1,11,GAS);
  2025     0620  300B               	movlw	11
  2026     0621  00F5               	movwf	LCD_String_xy@pos
  2027     0622  30B4               	movlw	(low (main@GAS| (0+256)))& (0+255)
  2028     0623  00F6               	movwf	LCD_String_xy@msg
  2029     0624  3001               	movlw	1
  2030     0625  00F7               	movwf	LCD_String_xy@msg+1
  2031     0626  3001               	movlw	1
  2032     0627  160A  118A  233C  120A  118A  	fcall	_LCD_String_xy
  2033     062C                     l3608:
  2034                           
  2035                           ;Proyecto_Final.c: 109:             PORTE=0x02;
  2036     062C  3002               	movlw	2
  2037     062D  1283               	bcf	3,5	;RP0=0, select bank0
  2038     062E  1303               	bcf	3,6	;RP1=0, select bank0
  2039     062F  0089               	movwf	9	;volatile
  2040     0630                     l3610:
  2041                           
  2042                           ;Proyecto_Final.c: 110:             _delay((unsigned long)((200)*(8000000/4000.0)));
  2043     0630  3003               	movlw	3
  2044     0631  1683               	bsf	3,5	;RP0=1, select bank1
  2045     0632  1303               	bcf	3,6	;RP1=0, select bank1
  2046     0633  00C1               	movwf	(??_main^(0+128)+2)
  2047     0634  3008               	movlw	8
  2048     0635  00C0               	movwf	(??_main^(0+128)+1)
  2049     0636  3076               	movlw	118
  2050     0637  00BF               	movwf	??_main^(0+128)
  2051     0638                     u5367:
  2052     0638  0BBF               	decfsz	??_main^(0+128),f
  2053     0639  2E38               	goto	u5367
  2054     063A  0BC0               	decfsz	(??_main^(0+128)+1),f
  2055     063B  2E38               	goto	u5367
  2056     063C  0BC1               	decfsz	(??_main^(0+128)+2),f
  2057     063D  2E38               	goto	u5367
  2058     063E  0000               	nop
  2059                           
  2060                           ;Proyecto_Final.c: 112:         }
  2061     063F  2E5A               	goto	l72
  2062     0640                     l71:	
  2063                           ;Proyecto_Final.c: 114:         else if(PORTCbits.RC1==0){
  2064                           
  2065     0640  1887               	btfsc	7,1	;volatile
  2066     0641  2E43               	goto	u5271
  2067     0642  2E44               	goto	u5270
  2068     0643                     u5271:
  2069     0643  2E5A               	goto	l72
  2070     0644                     u5270:
  2071     0644                     l3612:
  2072                           
  2073                           ;Proyecto_Final.c: 115:            strcpy(GAS,"N-G");
  2074     0644  3090               	movlw	(low ((STR_8-__stringbase)| (0+32768)))& (0+255)
  2075     0645  00F0               	movwf	strcpy@from
  2076     0646  3080               	movlw	128
  2077     0647  00F1               	movwf	strcpy@from+1
  2078     0648  30B4               	movlw	(low (main@GAS| (0+256)))& (0+255)
  2079     0649  160A  118A  22F1  120A  118A  	fcall	_strcpy
  2080                           
  2081                           ;Proyecto_Final.c: 116:            LCD_String_xy(1,11,GAS);
  2082     064E  300B               	movlw	11
  2083     064F  00F5               	movwf	LCD_String_xy@pos
  2084     0650  30B4               	movlw	(low (main@GAS| (0+256)))& (0+255)
  2085     0651  00F6               	movwf	LCD_String_xy@msg
  2086     0652  3001               	movlw	1
  2087     0653  00F7               	movwf	LCD_String_xy@msg+1
  2088     0654  3001               	movlw	1
  2089     0655  160A  118A  233C  120A  118A  	fcall	_LCD_String_xy
  2090     065A                     l72:
  2091                           
  2092                           ;Proyecto_Final.c: 121:         strcat(stringBT,GAS);
  2093     065A  30B4               	movlw	(low (main@GAS| (0+256)))& (0+255)
  2094     065B  00F0               	movwf	strcat@from
  2095     065C  3001               	movlw	1
  2096     065D  00F1               	movwf	strcat@from+1
  2097     065E  3010               	movlw	(low (_stringBT| (0+256)))& (0+255)
  2098     065F  160A  118A  23D9  120A  118A  	fcall	_strcat
  2099                           
  2100                           ;Proyecto_Final.c: 122:         strcat(stringBT,",");
  2101     0664  30A5               	movlw	(low ((STR_6-__stringbase)| (0+32768)))& (0+255)
  2102     0665  00F0               	movwf	strcat@from
  2103     0666  3080               	movlw	128
  2104     0667  00F1               	movwf	strcat@from+1
  2105     0668  3010               	movlw	(low (_stringBT| (0+256)))& (0+255)
  2106     0669  160A  118A  23D9  120A  118A  	fcall	_strcat
  2107     066E                     l3614:
  2108                           
  2109                           ;Proyecto_Final.c: 127:         char CHOQUE [10];;Proyecto_Final.c: 128:          if(POR
      +                          TCbits.RC0 == 0)
  2110     066E  1283               	bcf	3,5	;RP0=0, select bank0
  2111     066F  1303               	bcf	3,6	;RP1=0, select bank0
  2112     0670  1807               	btfsc	7,0	;volatile
  2113     0671  2E73               	goto	u5281
  2114     0672  2E74               	goto	u5280
  2115     0673                     u5281:
  2116     0673  2E9D               	goto	l74
  2117     0674                     u5280:
  2118     0674                     l3616:
  2119                           
  2120                           ;Proyecto_Final.c: 129:         {;Proyecto_Final.c: 130:              strcpy(CHOQUE,"CHO
      +                          QUE");
  2121     0674  307F               	movlw	(low (((STR_11+3)-__stringbase)| (0+32768)))& (0+255)
  2122     0675  00F0               	movwf	strcpy@from
  2123     0676  3080               	movlw	128
  2124     0677  00F1               	movwf	strcpy@from+1
  2125     0678  309A               	movlw	(low (main@CHOQUE| (0+256)))& (0+255)
  2126     0679  160A  118A  22F1  120A  118A  	fcall	_strcpy
  2127                           
  2128                           ;Proyecto_Final.c: 132:             LCD_String_xy(2,0,CHOQUE);
  2129     067E  01F5               	clrf	LCD_String_xy@pos
  2130     067F  309A               	movlw	(low (main@CHOQUE| (0+256)))& (0+255)
  2131     0680  00F6               	movwf	LCD_String_xy@msg
  2132     0681  3001               	movlw	1
  2133     0682  00F7               	movwf	LCD_String_xy@msg+1
  2134     0683  3002               	movlw	2
  2135     0684  160A  118A  233C  120A  118A  	fcall	_LCD_String_xy
  2136     0689                     l3618:
  2137                           
  2138                           ;Proyecto_Final.c: 133:             PORTE=0x01;
  2139     0689  3001               	movlw	1
  2140     068A  1283               	bcf	3,5	;RP0=0, select bank0
  2141     068B  1303               	bcf	3,6	;RP1=0, select bank0
  2142     068C  0089               	movwf	9	;volatile
  2143     068D                     l3620:
  2144                           
  2145                           ;Proyecto_Final.c: 134:             _delay((unsigned long)((200)*(8000000/4000.0)));
  2146     068D  3003               	movlw	3
  2147     068E  1683               	bsf	3,5	;RP0=1, select bank1
  2148     068F  1303               	bcf	3,6	;RP1=0, select bank1
  2149     0690  00C1               	movwf	(??_main^(0+128)+2)
  2150     0691  3008               	movlw	8
  2151     0692  00C0               	movwf	(??_main^(0+128)+1)
  2152     0693  3076               	movlw	118
  2153     0694  00BF               	movwf	??_main^(0+128)
  2154     0695                     u5377:
  2155     0695  0BBF               	decfsz	??_main^(0+128),f
  2156     0696  2E95               	goto	u5377
  2157     0697  0BC0               	decfsz	(??_main^(0+128)+1),f
  2158     0698  2E95               	goto	u5377
  2159     0699  0BC1               	decfsz	(??_main^(0+128)+2),f
  2160     069A  2E95               	goto	u5377
  2161     069B  0000               	nop
  2162                           
  2163                           ;Proyecto_Final.c: 135:         }
  2164     069C  2EB6               	goto	l75
  2165     069D                     l74:	
  2166                           ;Proyecto_Final.c: 137:         else if(PORTCbits.RC0 == 1){
  2167                           
  2168     069D  1C07               	btfss	7,0	;volatile
  2169     069E  2EA0               	goto	u5291
  2170     069F  2EA1               	goto	u5290
  2171     06A0                     u5291:
  2172     06A0  2EB6               	goto	l75
  2173     06A1                     u5290:
  2174     06A1                     l3622:
  2175                           
  2176                           ;Proyecto_Final.c: 138:             strcpy(CHOQUE,"NO CHOQUE");
  2177     06A1  307C               	movlw	(low ((STR_11-__stringbase)| (0+32768)))& (0+255)
  2178     06A2  00F0               	movwf	strcpy@from
  2179     06A3  3080               	movlw	128
  2180     06A4  00F1               	movwf	strcpy@from+1
  2181     06A5  309A               	movlw	(low (main@CHOQUE| (0+256)))& (0+255)
  2182     06A6  160A  118A  22F1  120A  118A  	fcall	_strcpy
  2183                           
  2184                           ;Proyecto_Final.c: 139:             LCD_String_xy(2,0,CHOQUE);
  2185     06AB  01F5               	clrf	LCD_String_xy@pos
  2186     06AC  309A               	movlw	(low (main@CHOQUE| (0+256)))& (0+255)
  2187     06AD  00F6               	movwf	LCD_String_xy@msg
  2188     06AE  3001               	movlw	1
  2189     06AF  00F7               	movwf	LCD_String_xy@msg+1
  2190     06B0  3002               	movlw	2
  2191     06B1  160A  118A  233C  120A  118A  	fcall	_LCD_String_xy
  2192     06B6                     l75:
  2193                           
  2194                           ;Proyecto_Final.c: 143:         strcat(stringBT,CHOQUE);
  2195     06B6  309A               	movlw	(low (main@CHOQUE| (0+256)))& (0+255)
  2196     06B7  00F0               	movwf	strcat@from
  2197     06B8  3001               	movlw	1
  2198     06B9  00F1               	movwf	strcat@from+1
  2199     06BA  3010               	movlw	(low (_stringBT| (0+256)))& (0+255)
  2200     06BB  160A  118A  23D9  120A  118A  	fcall	_strcat
  2201                           
  2202                           ;Proyecto_Final.c: 144:         strcat(stringBT,",");
  2203     06C0  30A5               	movlw	(low ((STR_6-__stringbase)| (0+32768)))& (0+255)
  2204     06C1  00F0               	movwf	strcat@from
  2205     06C2  3080               	movlw	128
  2206     06C3  00F1               	movwf	strcat@from+1
  2207     06C4  3010               	movlw	(low (_stringBT| (0+256)))& (0+255)
  2208     06C5  160A  118A  23D9  120A  118A  	fcall	_strcat
  2209     06CA                     l3624:
  2210                           
  2211                           ;Proyecto_Final.c: 148:         char MER [4];;Proyecto_Final.c: 150:             if(PORT
      +                          Cbits.RC3==1)
  2212     06CA  1283               	bcf	3,5	;RP0=0, select bank0
  2213     06CB  1303               	bcf	3,6	;RP1=0, select bank0
  2214     06CC  1D87               	btfss	7,3	;volatile
  2215     06CD  2ECF               	goto	u5301
  2216     06CE  2ED0               	goto	u5300
  2217     06CF                     u5301:
  2218     06CF  2EFA               	goto	l77
  2219     06D0                     u5300:
  2220     06D0                     l3626:
  2221                           
  2222                           ;Proyecto_Final.c: 151:         {;Proyecto_Final.c: 152:             strcpy(MER,"ACC");
  2223     06D0  308C               	movlw	(low ((STR_13-__stringbase)| (0+32768)))& (0+255)
  2224     06D1  00F0               	movwf	strcpy@from
  2225     06D2  3080               	movlw	128
  2226     06D3  00F1               	movwf	strcpy@from+1
  2227     06D4  30B8               	movlw	(low (main@MER| (0+256)))& (0+255)
  2228     06D5  160A  118A  22F1  120A  118A  	fcall	_strcpy
  2229                           
  2230                           ;Proyecto_Final.c: 154:             LCD_String_xy(2,11,MER);
  2231     06DA  300B               	movlw	11
  2232     06DB  00F5               	movwf	LCD_String_xy@pos
  2233     06DC  30B8               	movlw	(low (main@MER| (0+256)))& (0+255)
  2234     06DD  00F6               	movwf	LCD_String_xy@msg
  2235     06DE  3001               	movlw	1
  2236     06DF  00F7               	movwf	LCD_String_xy@msg+1
  2237     06E0  3002               	movlw	2
  2238     06E1  160A  118A  233C  120A  118A  	fcall	_LCD_String_xy
  2239     06E6                     l3628:
  2240                           
  2241                           ;Proyecto_Final.c: 155:             PORTE=0x04;
  2242     06E6  3004               	movlw	4
  2243     06E7  1283               	bcf	3,5	;RP0=0, select bank0
  2244     06E8  1303               	bcf	3,6	;RP1=0, select bank0
  2245     06E9  0089               	movwf	9	;volatile
  2246     06EA                     l3630:
  2247                           
  2248                           ;Proyecto_Final.c: 156:             _delay((unsigned long)((200)*(8000000/4000.0)));
  2249     06EA  3003               	movlw	3
  2250     06EB  1683               	bsf	3,5	;RP0=1, select bank1
  2251     06EC  1303               	bcf	3,6	;RP1=0, select bank1
  2252     06ED  00C1               	movwf	(??_main^(0+128)+2)
  2253     06EE  3008               	movlw	8
  2254     06EF  00C0               	movwf	(??_main^(0+128)+1)
  2255     06F0  3076               	movlw	118
  2256     06F1  00BF               	movwf	??_main^(0+128)
  2257     06F2                     u5387:
  2258     06F2  0BBF               	decfsz	??_main^(0+128),f
  2259     06F3  2EF2               	goto	u5387
  2260     06F4  0BC0               	decfsz	(??_main^(0+128)+1),f
  2261     06F5  2EF2               	goto	u5387
  2262     06F6  0BC1               	decfsz	(??_main^(0+128)+2),f
  2263     06F7  2EF2               	goto	u5387
  2264     06F8  0000               	nop
  2265                           
  2266                           ;Proyecto_Final.c: 157:         }
  2267     06F9  2F14               	goto	l78
  2268     06FA                     l77:	
  2269                           ;Proyecto_Final.c: 159:         else if(PORTCbits.RC3==0){
  2270                           
  2271     06FA  1987               	btfsc	7,3	;volatile
  2272     06FB  2EFD               	goto	u5311
  2273     06FC  2EFE               	goto	u5310
  2274     06FD                     u5311:
  2275     06FD  2F14               	goto	l78
  2276     06FE                     u5310:
  2277     06FE                     l3632:
  2278                           
  2279                           ;Proyecto_Final.c: 161:             strcpy(MER,"SEG");
  2280     06FE  3098               	movlw	(low ((STR_14-__stringbase)| (0+32768)))& (0+255)
  2281     06FF  00F0               	movwf	strcpy@from
  2282     0700  3080               	movlw	128
  2283     0701  00F1               	movwf	strcpy@from+1
  2284     0702  30B8               	movlw	(low (main@MER| (0+256)))& (0+255)
  2285     0703  160A  118A  22F1  120A  118A  	fcall	_strcpy
  2286                           
  2287                           ;Proyecto_Final.c: 162:            LCD_String_xy(2,11,MER);
  2288     0708  300B               	movlw	11
  2289     0709  00F5               	movwf	LCD_String_xy@pos
  2290     070A  30B8               	movlw	(low (main@MER| (0+256)))& (0+255)
  2291     070B  00F6               	movwf	LCD_String_xy@msg
  2292     070C  3001               	movlw	1
  2293     070D  00F7               	movwf	LCD_String_xy@msg+1
  2294     070E  3002               	movlw	2
  2295     070F  160A  118A  233C  120A  118A  	fcall	_LCD_String_xy
  2296     0714                     l78:
  2297                           
  2298                           ;Proyecto_Final.c: 166:         strcat(stringBT,MER);
  2299     0714  30B8               	movlw	(low (main@MER| (0+256)))& (0+255)
  2300     0715  00F0               	movwf	strcat@from
  2301     0716  3001               	movlw	1
  2302     0717  00F1               	movwf	strcat@from+1
  2303     0718  3010               	movlw	(low (_stringBT| (0+256)))& (0+255)
  2304     0719  160A  118A  23D9  120A  118A  	fcall	_strcat
  2305                           
  2306                           ;Proyecto_Final.c: 167:         strcat(stringBT,"\r\n");
  2307     071E  309C               	movlw	(low ((STR_15-__stringbase)| (0+32768)))& (0+255)
  2308     071F  00F0               	movwf	strcat@from
  2309     0720  3080               	movlw	128
  2310     0721  00F1               	movwf	strcat@from+1
  2311     0722  3010               	movlw	(low (_stringBT| (0+256)))& (0+255)
  2312     0723  160A  118A  23D9  120A  118A  	fcall	_strcat
  2313     0728                     l3634:
  2314                           
  2315                           ;Proyecto_Final.c: 170:         if ( tempC < 30){
  2316     0728  1683               	bsf	3,5	;RP0=1, select bank3
  2317     0729  1703               	bsf	3,6	;RP1=1, select bank3
  2318     072A  083F               	movf	(main@tempC+3)^(0+384),w
  2319     072B  00F3               	movwf	___flge@ff1+3
  2320     072C  083E               	movf	(main@tempC+2)^(0+384),w
  2321     072D  00F2               	movwf	___flge@ff1+2
  2322     072E  083D               	movf	(main@tempC+1)^(0+384),w
  2323     072F  00F1               	movwf	___flge@ff1+1
  2324     0730  083C               	movf	main@tempC^(0+384),w
  2325     0731  00F0               	movwf	___flge@ff1
  2326     0732  3041               	movlw	65
  2327     0733  00F7               	movwf	___flge@ff2+3
  2328     0734  30F0               	movlw	240
  2329     0735  00F6               	movwf	___flge@ff2+2
  2330     0736  3000               	movlw	0
  2331     0737  00F5               	movwf	___flge@ff2+1
  2332     0738  3000               	movlw	0
  2333     0739  00F4               	movwf	___flge@ff2
  2334     073A  160A  118A  275E  120A  118A  	fcall	___flge
  2335     073F  1803               	btfsc	3,0
  2336     0740  2F42               	goto	u5321
  2337     0741  2F43               	goto	u5320
  2338     0742                     u5321:
  2339     0742  2F57               	goto	l3638
  2340     0743                     u5320:
  2341     0743                     l3636:
  2342                           
  2343                           ;Proyecto_Final.c: 171:             PORTD=0x04;
  2344     0743  3004               	movlw	4
  2345     0744  1283               	bcf	3,5	;RP0=0, select bank0
  2346     0745  1303               	bcf	3,6	;RP1=0, select bank0
  2347     0746  0088               	movwf	8	;volatile
  2348                           
  2349                           ;Proyecto_Final.c: 172:             _delay((unsigned long)((2000)*(8000000/4000.0)));
  2350     0747  3015               	movlw	21
  2351     0748  1683               	bsf	3,5	;RP0=1, select bank1
  2352     0749  1303               	bcf	3,6	;RP1=0, select bank1
  2353     074A  00C1               	movwf	(??_main^(0+128)+2)
  2354     074B  304B               	movlw	75
  2355     074C  00C0               	movwf	(??_main^(0+128)+1)
  2356     074D  30BD               	movlw	189
  2357     074E  00BF               	movwf	??_main^(0+128)
  2358     074F                     u5397:
  2359     074F  0BBF               	decfsz	??_main^(0+128),f
  2360     0750  2F4F               	goto	u5397
  2361     0751  0BC0               	decfsz	(??_main^(0+128)+1),f
  2362     0752  2F4F               	goto	u5397
  2363     0753  0BC1               	decfsz	(??_main^(0+128)+2),f
  2364     0754  2F4F               	goto	u5397
  2365     0755  2F56               	nop2
  2366                           
  2367                           ;Proyecto_Final.c: 173:         }
  2368     0756  2FAB               	goto	l81
  2369     0757                     l3638:
  2370     0757  1683               	bsf	3,5	;RP0=1, select bank3
  2371     0758  1703               	bsf	3,6	;RP1=1, select bank3
  2372     0759  083F               	movf	(main@tempC+3)^(0+384),w
  2373     075A  00F3               	movwf	___flge@ff1+3
  2374     075B  083E               	movf	(main@tempC+2)^(0+384),w
  2375     075C  00F2               	movwf	___flge@ff1+2
  2376     075D  083D               	movf	(main@tempC+1)^(0+384),w
  2377     075E  00F1               	movwf	___flge@ff1+1
  2378     075F  083C               	movf	main@tempC^(0+384),w
  2379     0760  00F0               	movwf	___flge@ff1
  2380     0761  3041               	movlw	65
  2381     0762  00F7               	movwf	___flge@ff2+3
  2382     0763  30F0               	movlw	240
  2383     0764  00F6               	movwf	___flge@ff2+2
  2384     0765  3000               	movlw	0
  2385     0766  00F5               	movwf	___flge@ff2+1
  2386     0767  3000               	movlw	0
  2387     0768  00F4               	movwf	___flge@ff2
  2388     0769  160A  118A  275E  120A  118A  	fcall	___flge
  2389     076E  1C03               	btfss	3,0
  2390     076F  2F71               	goto	u5331
  2391     0770  2F72               	goto	u5330
  2392     0771                     u5331:
  2393     0771  2FAB               	goto	l81
  2394     0772                     u5330:
  2395     0772                     l3640:
  2396                           
  2397                           ;Proyecto_Final.c: 176:                 PORTE=0x01;
  2398     0772  3001               	movlw	1
  2399     0773  1283               	bcf	3,5	;RP0=0, select bank0
  2400     0774  1303               	bcf	3,6	;RP1=0, select bank0
  2401     0775  0089               	movwf	9	;volatile
  2402                           
  2403                           ;Proyecto_Final.c: 177:                 _delay((unsigned long)((200)*(8000000/4000.0)));
  2404     0776  3003               	movlw	3
  2405     0777  1683               	bsf	3,5	;RP0=1, select bank1
  2406     0778  1303               	bcf	3,6	;RP1=0, select bank1
  2407     0779  00C1               	movwf	(??_main^(0+128)+2)
  2408     077A  3008               	movlw	8
  2409     077B  00C0               	movwf	(??_main^(0+128)+1)
  2410     077C  3076               	movlw	118
  2411     077D  00BF               	movwf	??_main^(0+128)
  2412     077E                     u5407:
  2413     077E  0BBF               	decfsz	??_main^(0+128),f
  2414     077F  2F7E               	goto	u5407
  2415     0780  0BC0               	decfsz	(??_main^(0+128)+1),f
  2416     0781  2F7E               	goto	u5407
  2417     0782  0BC1               	decfsz	(??_main^(0+128)+2),f
  2418     0783  2F7E               	goto	u5407
  2419     0784  0000               	nop
  2420                           
  2421                           ;Proyecto_Final.c: 178:                 PORTE=0x02;
  2422     0785  3002               	movlw	2
  2423     0786  1283               	bcf	3,5	;RP0=0, select bank0
  2424     0787  1303               	bcf	3,6	;RP1=0, select bank0
  2425     0788  0089               	movwf	9	;volatile
  2426                           
  2427                           ;Proyecto_Final.c: 179:                 _delay((unsigned long)((200)*(8000000/4000.0)));
  2428     0789  3003               	movlw	3
  2429     078A  1683               	bsf	3,5	;RP0=1, select bank1
  2430     078B  1303               	bcf	3,6	;RP1=0, select bank1
  2431     078C  00C1               	movwf	(??_main^(0+128)+2)
  2432     078D  3008               	movlw	8
  2433     078E  00C0               	movwf	(??_main^(0+128)+1)
  2434     078F  3076               	movlw	118
  2435     0790  00BF               	movwf	??_main^(0+128)
  2436     0791                     u5417:
  2437     0791  0BBF               	decfsz	??_main^(0+128),f
  2438     0792  2F91               	goto	u5417
  2439     0793  0BC0               	decfsz	(??_main^(0+128)+1),f
  2440     0794  2F91               	goto	u5417
  2441     0795  0BC1               	decfsz	(??_main^(0+128)+2),f
  2442     0796  2F91               	goto	u5417
  2443     0797  0000               	nop
  2444                           
  2445                           ;Proyecto_Final.c: 180:                  PORTE=0x04;
  2446     0798  3004               	movlw	4
  2447     0799  1283               	bcf	3,5	;RP0=0, select bank0
  2448     079A  1303               	bcf	3,6	;RP1=0, select bank0
  2449     079B  0089               	movwf	9	;volatile
  2450                           
  2451                           ;Proyecto_Final.c: 181:                 _delay((unsigned long)((200)*(8000000/4000.0)));
  2452     079C  3003               	movlw	3
  2453     079D  1683               	bsf	3,5	;RP0=1, select bank1
  2454     079E  1303               	bcf	3,6	;RP1=0, select bank1
  2455     079F  00C1               	movwf	(??_main^(0+128)+2)
  2456     07A0  3008               	movlw	8
  2457     07A1  00C0               	movwf	(??_main^(0+128)+1)
  2458     07A2  3076               	movlw	118
  2459     07A3  00BF               	movwf	??_main^(0+128)
  2460     07A4                     u5427:
  2461     07A4  0BBF               	decfsz	??_main^(0+128),f
  2462     07A5  2FA4               	goto	u5427
  2463     07A6  0BC0               	decfsz	(??_main^(0+128)+1),f
  2464     07A7  2FA4               	goto	u5427
  2465     07A8  0BC1               	decfsz	(??_main^(0+128)+2),f
  2466     07A9  2FA4               	goto	u5427
  2467     07AA  0000               	nop
  2468     07AB                     l81:
  2469                           
  2470                           ;Proyecto_Final.c: 187:          _delay((unsigned long)((2000)*(8000000/4000.0)));
  2471     07AB  3015               	movlw	21
  2472     07AC  1683               	bsf	3,5	;RP0=1, select bank1
  2473     07AD  1303               	bcf	3,6	;RP1=0, select bank1
  2474     07AE  00C1               	movwf	(??_main^(0+128)+2)
  2475     07AF  304B               	movlw	75
  2476     07B0  00C0               	movwf	(??_main^(0+128)+1)
  2477     07B1  30BD               	movlw	189
  2478     07B2  00BF               	movwf	??_main^(0+128)
  2479     07B3                     u5437:
  2480     07B3  0BBF               	decfsz	??_main^(0+128),f
  2481     07B4  2FB3               	goto	u5437
  2482     07B5  0BC0               	decfsz	(??_main^(0+128)+1),f
  2483     07B6  2FB3               	goto	u5437
  2484     07B7  0BC1               	decfsz	(??_main^(0+128)+2),f
  2485     07B8  2FB3               	goto	u5437
  2486     07B9  2FBA               	nop2
  2487     07BA                     l3642:
  2488                           
  2489                           ;Proyecto_Final.c: 188:     LCD_String("  ");
  2490     07BA  309F               	movlw	(low ((STR_5-__stringbase)| (0+32768)))& (0+255)
  2491     07BB  00F3               	movwf	LCD_String@msg
  2492     07BC  3080               	movlw	128
  2493     07BD  00F4               	movwf	LCD_String@msg+1
  2494     07BE  160A  118A  2316  120A  118A  	fcall	_LCD_String
  2495     07C3                     l3644:
  2496                           
  2497                           ;Proyecto_Final.c: 191:         USART_SendString(stringBT);
  2498     07C3  3010               	movlw	(low (_stringBT| (0+256)))& (0+255)
  2499     07C4  00F1               	movwf	USART_SendString@out
  2500     07C5  3001               	movlw	1
  2501     07C6  00F2               	movwf	USART_SendString@out+1
  2502     07C7  160A  118A  2362  120A  118A  	fcall	_USART_SendString
  2503                           
  2504                           ;Proyecto_Final.c: 192:         _delay((unsigned long)((1000)*(8000000/4000.0)));
  2505     07CC  300B               	movlw	11
  2506     07CD  1683               	bsf	3,5	;RP0=1, select bank1
  2507     07CE  1303               	bcf	3,6	;RP1=0, select bank1
  2508     07CF  00C1               	movwf	(??_main^(0+128)+2)
  2509     07D0  3026               	movlw	38
  2510     07D1  00C0               	movwf	(??_main^(0+128)+1)
  2511     07D2  305D               	movlw	93
  2512     07D3  00BF               	movwf	??_main^(0+128)
  2513     07D4                     u5447:
  2514     07D4  0BBF               	decfsz	??_main^(0+128),f
  2515     07D5  2FD4               	goto	u5447
  2516     07D6  0BC0               	decfsz	(??_main^(0+128)+1),f
  2517     07D7  2FD4               	goto	u5447
  2518     07D8  0BC1               	decfsz	(??_main^(0+128)+2),f
  2519     07D9  2FD4               	goto	u5447
  2520     07DA                     l3646:
  2521                           
  2522                           ;Proyecto_Final.c: 193:         LCD_Clear();
  2523     07DA  120A  118A  2014  120A  118A  	fcall	_LCD_Clear
  2524     07DF  2BD4               	goto	l3574
  2525     07E0  120A  118A  2800   	ljmp	start
  2526     07E3                     __end_of_main:
  2527                           
  2528                           	psect	text1
  2529     12F1                     __ptext1:	
  2530 ;; *************** function _strcpy *****************
  2531 ;; Defined at:
  2532 ;;		line 8 in file "C:\Program Files\Microchip\xc8\v2.40\pic\sources\c90\common\strcpy.c"
  2533 ;; Parameters:    Size  Location     Type
  2534 ;;  to              1    wreg     PTR unsigned char 
  2535 ;;		 -> main@MER(4), main@CHOQUE(10), main@GAS(4), stringBT(50), 
  2536 ;;  from            2    0[COMMON] PTR const unsigned char 
  2537 ;;		 -> STR_14(4), STR_13(4), STR_11(10), STR_10(7), 
  2538 ;;		 -> STR_8(4), STR_7(4), main@Temperature(10), 
  2539 ;; Auto vars:     Size  Location     Type
  2540 ;;  to              1    4[COMMON] PTR unsigned char 
  2541 ;;		 -> main@MER(4), main@CHOQUE(10), main@GAS(4), stringBT(50), 
  2542 ;;  cp              1    3[COMMON] PTR unsigned char 
  2543 ;;		 -> main@MER(4), main@CHOQUE(10), main@GAS(4), stringBT(50), 
  2544 ;; Return value:  Size  Location     Type
  2545 ;;                  1    wreg      PTR unsigned char 
  2546 ;; Registers used:
  2547 ;;		wreg, fsr0l, fsr0h, status,2, status,0, btemp+1, pclath
  2548 ;; Tracked objects:
  2549 ;;		On entry : 0/0
  2550 ;;		On exit  : 0/0
  2551 ;;		Unchanged: 0/0
  2552 ;; Data sizes:     COMMON   BANK0   BANK1   BANK3   BANK2
  2553 ;;      Params:         2       0       0       0       0
  2554 ;;      Locals:         2       0       0       0       0
  2555 ;;      Temps:          1       0       0       0       0
  2556 ;;      Totals:         5       0       0       0       0
  2557 ;;Total ram usage:        5 bytes
  2558 ;; Hardware stack levels used: 2
  2559 ;; This function calls:
  2560 ;;		Nothing
  2561 ;; This function is called by:
  2562 ;;		_main
  2563 ;; This function uses a non-reentrant model
  2564 ;;
  2565                           
  2566     12F1                     _strcpy:	
  2567                           ;psect for function _strcpy
  2568                           
  2569                           
  2570                           ;incstack = 0
  2571                           ; Regs used in _strcpy: [wreg-fsr0h+status,2+status,0+btemp+1+pclath]
  2572                           ;strcpy@to stored from wreg
  2573     12F1  00F4               	movwf	strcpy@to
  2574     12F2                     l2694:
  2575     12F2  0874               	movf	strcpy@to,w
  2576     12F3  00F3               	movwf	strcpy@cp
  2577     12F4  2AFF               	goto	l2700
  2578     12F5                     l2696:
  2579     12F5  3001               	movlw	1
  2580     12F6  00F2               	movwf	??_strcpy
  2581     12F7  0872               	movf	??_strcpy,w
  2582     12F8  07F3               	addwf	strcpy@cp,f
  2583     12F9                     l2698:
  2584     12F9  3001               	movlw	1
  2585     12FA  07F0               	addwf	strcpy@from,f
  2586     12FB  1803               	skipnc
  2587     12FC  0AF1               	incf	strcpy@from+1,f
  2588     12FD  3000               	movlw	0
  2589     12FE  07F1               	addwf	strcpy@from+1,f
  2590     12FF                     l2700:
  2591     12FF  0871               	movf	strcpy@from+1,w
  2592     1300  1283               	bcf	3,5	;RP0=0, select bank0
  2593     1301  1303               	bcf	3,6	;RP1=0, select bank0
  2594     1302  00FF               	movwf	btemp+1
  2595     1303  0870               	movf	strcpy@from,w
  2596     1304  0084               	movwf	4
  2597     1305  160A  118A  2000  160A  118A  	fcall	stringtab
  2598     130A  00F2               	movwf	??_strcpy
  2599     130B  0873               	movf	strcpy@cp,w
  2600     130C  0084               	movwf	4
  2601     130D  0872               	movf	??_strcpy,w
  2602     130E  1783               	bsf	3,7	;select IRP bank2
  2603     130F  0080               	movwf	0
  2604     1310  0800               	movf	0,w
  2605     1311  1D03               	btfss	3,2
  2606     1312  2B14               	goto	u3581
  2607     1313  2B15               	goto	u3580
  2608     1314                     u3581:
  2609     1314  2AF5               	goto	l2696
  2610     1315                     u3580:
  2611     1315                     l784:
  2612     1315  0008               	return
  2613     1316                     __end_of_strcpy:
  2614                           
  2615                           	psect	text2
  2616     13D9                     __ptext2:	
  2617 ;; *************** function _strcat *****************
  2618 ;; Defined at:
  2619 ;;		line 8 in file "C:\Program Files\Microchip\xc8\v2.40\pic\sources\c90\common\strcat.c"
  2620 ;; Parameters:    Size  Location     Type
  2621 ;;  to              1    wreg     PTR unsigned char 
  2622 ;;		 -> stringBT(50), 
  2623 ;;  from            2    0[COMMON] PTR const unsigned char 
  2624 ;;		 -> STR_15(3), main@MER(4), STR_12(2), main@CHOQUE(10), 
  2625 ;;		 -> STR_9(2), main@GAS(4), STR_6(2), 
  2626 ;; Auto vars:     Size  Location     Type
  2627 ;;  to              1    4[COMMON] PTR unsigned char 
  2628 ;;		 -> stringBT(50), 
  2629 ;;  cp              1    3[COMMON] PTR unsigned char 
  2630 ;;		 -> stringBT(50), 
  2631 ;; Return value:  Size  Location     Type
  2632 ;;                  1    wreg      PTR unsigned char 
  2633 ;; Registers used:
  2634 ;;		wreg, fsr0l, fsr0h, status,2, status,0, btemp+1, pclath
  2635 ;; Tracked objects:
  2636 ;;		On entry : 0/0
  2637 ;;		On exit  : 0/0
  2638 ;;		Unchanged: 0/0
  2639 ;; Data sizes:     COMMON   BANK0   BANK1   BANK3   BANK2
  2640 ;;      Params:         2       0       0       0       0
  2641 ;;      Locals:         2       0       0       0       0
  2642 ;;      Temps:          1       0       0       0       0
  2643 ;;      Totals:         5       0       0       0       0
  2644 ;;Total ram usage:        5 bytes
  2645 ;; Hardware stack levels used: 2
  2646 ;; This function calls:
  2647 ;;		Nothing
  2648 ;; This function is called by:
  2649 ;;		_main
  2650 ;; This function uses a non-reentrant model
  2651 ;;
  2652                           
  2653     13D9                     _strcat:	
  2654                           ;psect for function _strcat
  2655                           
  2656                           
  2657                           ;incstack = 0
  2658                           ; Regs used in _strcat: [wreg-fsr0h+status,2+status,0+btemp+1+pclath]
  2659                           ;strcat@to stored from wreg
  2660     13D9  00F4               	movwf	strcat@to
  2661     13DA                     l2702:
  2662     13DA  0874               	movf	strcat@to,w
  2663     13DB  00F3               	movwf	strcat@cp
  2664     13DC  2BE1               	goto	l2706
  2665     13DD                     l2704:
  2666     13DD  3001               	movlw	1
  2667     13DE  00F2               	movwf	??_strcat
  2668     13DF  0872               	movf	??_strcat,w
  2669     13E0  07F3               	addwf	strcat@cp,f
  2670     13E1                     l2706:
  2671     13E1  0873               	movf	strcat@cp,w
  2672     13E2  0084               	movwf	4
  2673     13E3  1783               	bsf	3,7	;select IRP bank2
  2674     13E4  0800               	movf	0,w
  2675     13E5  1D03               	btfss	3,2
  2676     13E6  2BE8               	goto	u3591
  2677     13E7  2BE9               	goto	u3590
  2678     13E8                     u3591:
  2679     13E8  2BDD               	goto	l2704
  2680     13E9                     u3590:
  2681     13E9  2BF4               	goto	l2712
  2682     13EA                     l2708:
  2683     13EA  3001               	movlw	1
  2684     13EB  00F2               	movwf	??_strcat
  2685     13EC  0872               	movf	??_strcat,w
  2686     13ED  07F3               	addwf	strcat@cp,f
  2687     13EE                     l2710:
  2688     13EE  3001               	movlw	1
  2689     13EF  07F0               	addwf	strcat@from,f
  2690     13F0  1803               	skipnc
  2691     13F1  0AF1               	incf	strcat@from+1,f
  2692     13F2  3000               	movlw	0
  2693     13F3  07F1               	addwf	strcat@from+1,f
  2694     13F4                     l2712:
  2695     13F4  0871               	movf	strcat@from+1,w
  2696     13F5  1283               	bcf	3,5	;RP0=0, select bank0
  2697     13F6  1303               	bcf	3,6	;RP1=0, select bank0
  2698     13F7  00FF               	movwf	btemp+1
  2699     13F8  0870               	movf	strcat@from,w
  2700     13F9  0084               	movwf	4
  2701     13FA  160A  118A  2000  160A  118A  	fcall	stringtab
  2702     13FF  00F2               	movwf	??_strcat
  2703     1400  0873               	movf	strcat@cp,w
  2704     1401  0084               	movwf	4
  2705     1402  0872               	movf	??_strcat,w
  2706     1403  1783               	bsf	3,7	;select IRP bank2
  2707     1404  0080               	movwf	0
  2708     1405  0800               	movf	0,w
  2709     1406  1D03               	btfss	3,2
  2710     1407  2C09               	goto	u3601
  2711     1408  2C0A               	goto	u3600
  2712     1409                     u3601:
  2713     1409  2BEA               	goto	l2708
  2714     140A                     u3600:
  2715     140A                     l778:
  2716     140A  0008               	return
  2717     140B                     __end_of_strcat:
  2718                           
  2719                           	psect	text3
  2720     099E                     __ptext3:	
  2721 ;; *************** function _sprintf *****************
  2722 ;; Defined at:
  2723 ;;		line 505 in file "C:\Program Files\Microchip\xc8\v2.40\pic\sources\c90\common\doprnt.c"
  2724 ;; Parameters:    Size  Location     Type
  2725 ;;  sp              1    wreg     PTR unsigned char 
  2726 ;;		 -> main@Temperature(10), 
  2727 ;;  f               1   16[BANK1 ] PTR const unsigned char 
  2728 ;;		 -> STR_3(6), 
  2729 ;; Auto vars:     Size  Location     Type
  2730 ;;  sp              1   29[BANK1 ] PTR unsigned char 
  2731 ;;		 -> main@Temperature(10), 
  2732 ;;  tmpval          4    0        struct .
  2733 ;;  val             2   27[BANK1 ] unsigned int 
  2734 ;;  cp              2    0        PTR const unsigned char 
  2735 ;;  len             2    0        unsigned int 
  2736 ;;  c               1   30[BANK1 ] unsigned char 
  2737 ;;  ap              1   26[BANK1 ] PTR void [1]
  2738 ;;		 -> ?_sprintf(2), 
  2739 ;;  prec            1   25[BANK1 ] char 
  2740 ;;  flag            1   24[BANK1 ] unsigned char 
  2741 ;; Return value:  Size  Location     Type
  2742 ;;                  2   16[BANK1 ] int 
  2743 ;; Registers used:
  2744 ;;		wreg, fsr0l, fsr0h, status,2, status,0, btemp+1, pclath, cstack
  2745 ;; Tracked objects:
  2746 ;;		On entry : 0/0
  2747 ;;		On exit  : 0/0
  2748 ;;		Unchanged: 0/0
  2749 ;; Data sizes:     COMMON   BANK0   BANK1   BANK3   BANK2
  2750 ;;      Params:         0       0       5       0       0
  2751 ;;      Locals:         0       0       7       0       0
  2752 ;;      Temps:          0       0       3       0       0
  2753 ;;      Totals:         0       0      15       0       0
  2754 ;;Total ram usage:       15 bytes
  2755 ;; Hardware stack levels used: 1
  2756 ;; Hardware stack levels required when called: 1
  2757 ;; This function calls:
  2758 ;;		___lwdiv
  2759 ;;		___lwmod
  2760 ;; This function is called by:
  2761 ;;		_main
  2762 ;; This function uses a non-reentrant model
  2763 ;;
  2764                           
  2765     099E                     _sprintf:	
  2766                           ;psect for function _sprintf
  2767                           
  2768                           
  2769                           ;incstack = 0
  2770                           ; Regs used in _sprintf: [wreg-fsr0h+status,2+status,0+btemp+1+pclath+cstack]
  2771                           ;sprintf@sp stored from wreg
  2772     099E  1683               	bsf	3,5	;RP0=1, select bank1
  2773     099F  1303               	bcf	3,6	;RP1=0, select bank1
  2774     09A0  00BD               	movwf	sprintf@sp^(0+128)
  2775     09A1                     l2626:
  2776                           
  2777                           ;C:\Program Files\Microchip\xc8\v2.40\pic\sources\c90\common\doprnt.c: 505: sprintf(char
      +                           * sp, const char * f, ...);C:\Program Files\Microchip\xc8\v2.40\pic\sources\c90\common\
      +                          doprnt.c: 506: {;C:\Program Files\Microchip\xc8\v2.40\pic\sources\c90\common\doprnt.c: 5
      +                          07:  va_list ap;;C:\Program Files\Microchip\xc8\v2.40\pic\sources\c90\common\doprnt.c: 5
      +                          12:  char c;;C:\Program Files\Microchip\xc8\v2.40\pic\sources\c90\common\doprnt.c: 521: 
      +                           signed char prec;;C:\Program Files\Microchip\xc8\v2.40\pic\sources\c90\common\doprnt.c:
      +                           525:  unsigned char flag;
  2778     09A1  30B1               	movlw	(low ((?_sprintf| 0+1)))& (0+255)
  2779     09A2  00BA               	movwf	sprintf@ap^(0+128)
  2780                           
  2781                           ;C:\Program Files\Microchip\xc8\v2.40\pic\sources\c90\common\doprnt.c: 553:  while((c = 
      +                          *f++)) {
  2782     09A3  2A7A               	goto	l2684
  2783     09A4                     l2628:
  2784                           
  2785                           ;C:\Program Files\Microchip\xc8\v2.40\pic\sources\c90\common\doprnt.c: 555:   if(c != '%
      +                          ')
  2786     09A4  3025               	movlw	37
  2787     09A5  063E               	xorwf	sprintf@c^(0+128),w
  2788     09A6  1903               	btfsc	3,2
  2789     09A7  29A9               	goto	u3511
  2790     09A8  29AA               	goto	u3510
  2791     09A9                     u3511:
  2792     09A9  29B4               	goto	l2634
  2793     09AA                     u3510:
  2794     09AA                     l2630:
  2795                           
  2796                           ;C:\Program Files\Microchip\xc8\v2.40\pic\sources\c90\common\doprnt.c: 557:   {;C:\Progr
      +                          am Files\Microchip\xc8\v2.40\pic\sources\c90\common\doprnt.c: 558:    ((*sp++ = (c)));
  2797     09AA  083D               	movf	sprintf@sp^(0+128),w
  2798     09AB  0084               	movwf	4
  2799     09AC  083E               	movf	sprintf@c^(0+128),w
  2800     09AD  1783               	bsf	3,7	;select IRP bank2
  2801     09AE  0080               	movwf	0
  2802     09AF                     l2632:
  2803     09AF  3001               	movlw	1
  2804     09B0  00B5               	movwf	??_sprintf^(0+128)
  2805     09B1  0835               	movf	??_sprintf^(0+128),w
  2806     09B2  07BD               	addwf	sprintf@sp^(0+128),f
  2807                           
  2808                           ;C:\Program Files\Microchip\xc8\v2.40\pic\sources\c90\common\doprnt.c: 559:    continue;
  2809     09B3  2A7A               	goto	l2684
  2810     09B4                     l2634:
  2811                           
  2812                           ;C:\Program Files\Microchip\xc8\v2.40\pic\sources\c90\common\doprnt.c: 565:   flag = 0;
  2813     09B4  01B8               	clrf	sprintf@flag^(0+128)
  2814                           
  2815                           ;C:\Program Files\Microchip\xc8\v2.40\pic\sources\c90\common\doprnt.c: 661:   switch(c =
      +                           *f++) {
  2816     09B5  29C9               	goto	l2644
  2817     09B6                     l2636:
  2818                           
  2819                           ;C:\Program Files\Microchip\xc8\v2.40\pic\sources\c90\common\doprnt.c: 825:    c = (char
      +                          )(*(int *)__va_arg((*(int **)ap), (int)0));
  2820     09B6  083A               	movf	sprintf@ap^(0+128),w
  2821     09B7  0084               	movwf	4
  2822     09B8  1383               	bcf	3,7	;select IRP bank0
  2823     09B9  0800               	movf	0,w
  2824     09BA  00BE               	movwf	sprintf@c^(0+128)
  2825     09BB                     l2638:
  2826     09BB  3002               	movlw	2
  2827     09BC  00B5               	movwf	??_sprintf^(0+128)
  2828     09BD  0835               	movf	??_sprintf^(0+128),w
  2829     09BE  07BA               	addwf	sprintf@ap^(0+128),f
  2830     09BF                     l2640:
  2831                           
  2832                           ;C:\Program Files\Microchip\xc8\v2.40\pic\sources\c90\common\doprnt.c: 835:    ((*sp++ =
      +                           (c)));
  2833     09BF  083D               	movf	sprintf@sp^(0+128),w
  2834     09C0  0084               	movwf	4
  2835     09C1  083E               	movf	sprintf@c^(0+128),w
  2836     09C2  1783               	bsf	3,7	;select IRP bank2
  2837     09C3  0080               	movwf	0
  2838     09C4  3001               	movlw	1
  2839     09C5  00B5               	movwf	??_sprintf^(0+128)
  2840     09C6  0835               	movf	??_sprintf^(0+128),w
  2841     09C7  07BD               	addwf	sprintf@sp^(0+128),f
  2842                           
  2843                           ;C:\Program Files\Microchip\xc8\v2.40\pic\sources\c90\common\doprnt.c: 836:    continue;
  2844     09C8  2A7A               	goto	l2684
  2845     09C9                     l2644:
  2846     09C9  3001               	movlw	1
  2847     09CA  07B0               	addwf	sprintf@f^(0+128),f
  2848     09CB  30FF               	movlw	-1
  2849     09CC  0730               	addwf	sprintf@f^(0+128),w
  2850     09CD  0084               	movwf	4
  2851     09CE  160A  118A  200A  120A  158A  	fcall	stringdir
  2852     09D3  00BE               	movwf	sprintf@c^(0+128)
  2853     09D4  00B5               	movwf	??_sprintf^(0+128)
  2854     09D5  01B6               	clrf	(??_sprintf^(0+128)+1)
  2855                           
  2856                           ; Switch on 2 bytes has been partitioned into a top level switch of size 1, and 1 sub-sw
      +                          itches
  2857                           ; Switch size 1, requested type "simple"
  2858                           ; Number of cases is 1, Range of values is 0 to 0
  2859                           ; switch strategies available:
  2860                           ; Name         Instructions Cycles
  2861                           ; simple_byte            4     3 (average)
  2862                           ; direct_byte           11     8 (fixed)
  2863                           ; jumptable            260     6 (fixed)
  2864                           ;	Chosen strategy is simple_byte
  2865     09D6  0836               	movf	(??_sprintf+1)^(0+128),w
  2866     09D7  3A00               	xorlw	0	; case 0
  2867     09D8  1903               	skipnz
  2868     09D9  29DB               	goto	l3668
  2869     09DA  29BF               	goto	l2640
  2870     09DB                     l3668:
  2871                           
  2872                           ; Switch size 1, requested type "simple"
  2873                           ; Number of cases is 4, Range of values is 0 to 105
  2874                           ; switch strategies available:
  2875                           ; Name         Instructions Cycles
  2876                           ; simple_byte           13     7 (average)
  2877                           ; jumptable            260     6 (fixed)
  2878                           ;	Chosen strategy is simple_byte
  2879     09DB  0835               	movf	??_sprintf^(0+128),w
  2880     09DC  3A00               	xorlw	0	; case 0
  2881     09DD  1903               	skipnz
  2882     09DE  2A8A               	goto	l2686
  2883     09DF  3A63               	xorlw	99	; case 99
  2884     09E0  1903               	skipnz
  2885     09E1  29B6               	goto	l2636
  2886     09E2  3A07               	xorlw	7	; case 100
  2887     09E3  1903               	skipnz
  2888     09E4  29E9               	goto	l2646
  2889     09E5  3A0D               	xorlw	13	; case 105
  2890     09E6  1903               	skipnz
  2891     09E7  29E9               	goto	l2646
  2892     09E8  29BF               	goto	l2640
  2893     09E9                     l2646:
  2894                           
  2895                           ;C:\Program Files\Microchip\xc8\v2.40\pic\sources\c90\common\doprnt.c: 1279:   {;C:\Prog
      +                          ram Files\Microchip\xc8\v2.40\pic\sources\c90\common\doprnt.c: 1285:     val = (unsigned
      +                           int)(*(int *)__va_arg((*(int **)ap), (int)0));
  2896     09E9  083A               	movf	sprintf@ap^(0+128),w
  2897     09EA  0084               	movwf	4
  2898     09EB  1383               	bcf	3,7	;select IRP bank0
  2899     09EC  0800               	movf	0,w
  2900     09ED  00BB               	movwf	sprintf@val^(0+128)
  2901     09EE  0A84               	incf	4,f
  2902     09EF  0800               	movf	0,w
  2903     09F0  00BC               	movwf	(sprintf@val+1)^(0+128)
  2904     09F1                     l2648:
  2905     09F1  3002               	movlw	2
  2906     09F2  00B5               	movwf	??_sprintf^(0+128)
  2907     09F3  0835               	movf	??_sprintf^(0+128),w
  2908     09F4  07BA               	addwf	sprintf@ap^(0+128),f
  2909     09F5                     l2650:
  2910                           
  2911                           ;C:\Program Files\Microchip\xc8\v2.40\pic\sources\c90\common\doprnt.c: 1287:    if((int)
      +                          val < 0) {
  2912     09F5  1FBC               	btfss	(sprintf@val+1)^(0+128),7
  2913     09F6  29F8               	goto	u3521
  2914     09F7  29F9               	goto	u3520
  2915     09F8                     u3521:
  2916     09F8  2A02               	goto	l2656
  2917     09F9                     u3520:
  2918     09F9                     l2652:
  2919                           
  2920                           ;C:\Program Files\Microchip\xc8\v2.40\pic\sources\c90\common\doprnt.c: 1288:     flag |=
      +                           0x03;
  2921     09F9  3003               	movlw	3
  2922     09FA  00B5               	movwf	??_sprintf^(0+128)
  2923     09FB  0835               	movf	??_sprintf^(0+128),w
  2924     09FC  04B8               	iorwf	sprintf@flag^(0+128),f
  2925     09FD                     l2654:
  2926                           
  2927                           ;C:\Program Files\Microchip\xc8\v2.40\pic\sources\c90\common\doprnt.c: 1289:     val = -
      +                          val;
  2928     09FD  09BB               	comf	sprintf@val^(0+128),f
  2929     09FE  09BC               	comf	(sprintf@val+1)^(0+128),f
  2930     09FF  0ABB               	incf	sprintf@val^(0+128),f
  2931     0A00  1903               	skipnz
  2932     0A01  0ABC               	incf	(sprintf@val+1)^(0+128),f
  2933     0A02                     l2656:
  2934                           
  2935                           ;C:\Program Files\Microchip\xc8\v2.40\pic\sources\c90\common\doprnt.c: 1292:   };C:\Prog
      +                          ram Files\Microchip\xc8\v2.40\pic\sources\c90\common\doprnt.c: 1331:    for(c = 1 ; c !=
      +                           sizeof dpowers/sizeof dpowers[0] ; c++)
  2936     0A02  01BE               	clrf	sprintf@c^(0+128)
  2937     0A03  0ABE               	incf	sprintf@c^(0+128),f
  2938     0A04                     l2662:
  2939                           
  2940                           ;C:\Program Files\Microchip\xc8\v2.40\pic\sources\c90\common\doprnt.c: 1332:     if(val 
      +                          < dpowers[c])
  2941     0A04  083E               	movf	sprintf@c^(0+128),w
  2942     0A05  00B5               	movwf	??_sprintf^(0+128)
  2943     0A06  0735               	addwf	??_sprintf^(0+128),w
  2944     0A07  3E01               	addlw	low ((_dpowers-__stringbase)| (0+32768))
  2945     0A08  0084               	movwf	4
  2946     0A09  160A  118A  200A  120A  158A  	fcall	stringdir
  2947     0A0E  00B6               	movwf	(??_sprintf+1)^(0+128)
  2948     0A0F  160A  118A  200A  120A  158A  	fcall	stringdir
  2949     0A14  00B7               	movwf	((??_sprintf+1)^(0+128)+1)
  2950     0A15  0837               	movf	(??_sprintf+2)^(0+128),w
  2951     0A16  023C               	subwf	(sprintf@val+1)^(0+128),w
  2952     0A17  1D03               	skipz
  2953     0A18  2A1B               	goto	u3535
  2954     0A19  0836               	movf	(??_sprintf+1)^(0+128),w
  2955     0A1A  023B               	subwf	sprintf@val^(0+128),w
  2956     0A1B                     u3535:
  2957     0A1B  1803               	skipnc
  2958     0A1C  2A1E               	goto	u3531
  2959     0A1D  2A1F               	goto	u3530
  2960     0A1E                     u3531:
  2961     0A1E  2A20               	goto	l2666
  2962     0A1F                     u3530:
  2963     0A1F  2A2A               	goto	l2668
  2964     0A20                     l2666:
  2965     0A20  3001               	movlw	1
  2966     0A21  00B5               	movwf	??_sprintf^(0+128)
  2967     0A22  0835               	movf	??_sprintf^(0+128),w
  2968     0A23  07BE               	addwf	sprintf@c^(0+128),f
  2969     0A24  3005               	movlw	5
  2970     0A25  063E               	xorwf	sprintf@c^(0+128),w
  2971     0A26  1D03               	btfss	3,2
  2972     0A27  2A29               	goto	u3541
  2973     0A28  2A2A               	goto	u3540
  2974     0A29                     u3541:
  2975     0A29  2A04               	goto	l2662
  2976     0A2A                     u3540:
  2977     0A2A                     l2668:
  2978                           
  2979                           ;C:\Program Files\Microchip\xc8\v2.40\pic\sources\c90\common\doprnt.c: 1448:   {;C:\Prog
      +                          ram Files\Microchip\xc8\v2.40\pic\sources\c90\common\doprnt.c: 1464:    if(flag & 0x03)
  2980     0A2A  0838               	movf	sprintf@flag^(0+128),w
  2981     0A2B  3903               	andlw	3
  2982     0A2C  1903               	btfsc	3,2
  2983     0A2D  2A2F               	goto	u3551
  2984     0A2E  2A30               	goto	u3550
  2985     0A2F                     u3551:
  2986     0A2F  2A39               	goto	l2674
  2987     0A30                     u3550:
  2988     0A30                     l2670:
  2989                           
  2990                           ;C:\Program Files\Microchip\xc8\v2.40\pic\sources\c90\common\doprnt.c: 1465:     ((*sp++
      +                           = ('-')));
  2991     0A30  083D               	movf	sprintf@sp^(0+128),w
  2992     0A31  0084               	movwf	4
  2993     0A32  302D               	movlw	45
  2994     0A33  1783               	bsf	3,7	;select IRP bank2
  2995     0A34  0080               	movwf	0
  2996     0A35                     l2672:
  2997     0A35  3001               	movlw	1
  2998     0A36  00B5               	movwf	??_sprintf^(0+128)
  2999     0A37  0835               	movf	??_sprintf^(0+128),w
  3000     0A38  07BD               	addwf	sprintf@sp^(0+128),f
  3001     0A39                     l2674:
  3002                           
  3003                           ;C:\Program Files\Microchip\xc8\v2.40\pic\sources\c90\common\doprnt.c: 1495:   };C:\Prog
      +                          ram Files\Microchip\xc8\v2.40\pic\sources\c90\common\doprnt.c: 1498:   prec = c;
  3004     0A39  083E               	movf	sprintf@c^(0+128),w
  3005     0A3A  00B9               	movwf	sprintf@prec^(0+128)
  3006                           
  3007                           ;C:\Program Files\Microchip\xc8\v2.40\pic\sources\c90\common\doprnt.c: 1500:   while(pre
      +                          c--) {
  3008     0A3B  2A71               	goto	l2682
  3009     0A3C                     l2676:
  3010                           
  3011                           ;C:\Program Files\Microchip\xc8\v2.40\pic\sources\c90\common\doprnt.c: 1504:    {;C:\Pro
      +                          gram Files\Microchip\xc8\v2.40\pic\sources\c90\common\doprnt.c: 1515:     c = (val / dpo
      +                          wers[(unsigned char)prec]) % 10 + '0';
  3012     0A3C  300A               	movlw	10
  3013     0A3D  00F8               	movwf	___lwmod@divisor
  3014     0A3E  3000               	movlw	0
  3015     0A3F  00F9               	movwf	___lwmod@divisor+1
  3016     0A40  0839               	movf	sprintf@prec^(0+128),w
  3017     0A41  00B5               	movwf	??_sprintf^(0+128)
  3018     0A42  0735               	addwf	??_sprintf^(0+128),w
  3019     0A43  3E01               	addlw	low ((_dpowers-__stringbase)| (0+32768))
  3020     0A44  0084               	movwf	4
  3021     0A45  160A  118A  200A  120A  158A  	fcall	stringdir
  3022     0A4A  00F0               	movwf	___lwdiv@divisor
  3023     0A4B  160A  118A  200A  120A  158A  	fcall	stringdir
  3024     0A50  00F1               	movwf	___lwdiv@divisor+1
  3025     0A51  083C               	movf	(sprintf@val+1)^(0+128),w
  3026     0A52  00F3               	movwf	___lwdiv@dividend+1
  3027     0A53  083B               	movf	sprintf@val^(0+128),w
  3028     0A54  00F2               	movwf	___lwdiv@dividend
  3029     0A55  160A  118A  24F5  120A  158A  	fcall	___lwdiv
  3030     0A5A  0871               	movf	?___lwdiv+1,w
  3031     0A5B  00FB               	movwf	___lwmod@dividend+1
  3032     0A5C  0870               	movf	?___lwdiv,w
  3033     0A5D  00FA               	movwf	___lwmod@dividend
  3034     0A5E  160A  118A  2477  120A  158A  	fcall	___lwmod
  3035     0A63  0878               	movf	?___lwmod,w
  3036     0A64  3E30               	addlw	48
  3037     0A65  1683               	bsf	3,5	;RP0=1, select bank1
  3038     0A66  1303               	bcf	3,6	;RP1=0, select bank1
  3039     0A67  00BE               	movwf	sprintf@c^(0+128)
  3040     0A68                     l2678:
  3041                           
  3042                           ;C:\Program Files\Microchip\xc8\v2.40\pic\sources\c90\common\doprnt.c: 1549:    };C:\Pro
      +                          gram Files\Microchip\xc8\v2.40\pic\sources\c90\common\doprnt.c: 1550:    ((*sp++ = (c)))
      +                          ;
  3043     0A68  083D               	movf	sprintf@sp^(0+128),w
  3044     0A69  0084               	movwf	4
  3045     0A6A  083E               	movf	sprintf@c^(0+128),w
  3046     0A6B  1783               	bsf	3,7	;select IRP bank2
  3047     0A6C  0080               	movwf	0
  3048     0A6D                     l2680:
  3049     0A6D  3001               	movlw	1
  3050     0A6E  00B5               	movwf	??_sprintf^(0+128)
  3051     0A6F  0835               	movf	??_sprintf^(0+128),w
  3052     0A70  07BD               	addwf	sprintf@sp^(0+128),f
  3053     0A71                     l2682:
  3054                           
  3055                           ;C:\Program Files\Microchip\xc8\v2.40\pic\sources\c90\common\doprnt.c: 1500:   while(pre
      +                          c--) {
  3056     0A71  30FF               	movlw	255
  3057     0A72  00B5               	movwf	??_sprintf^(0+128)
  3058     0A73  0835               	movf	??_sprintf^(0+128),w
  3059     0A74  07B9               	addwf	sprintf@prec^(0+128),f
  3060     0A75  0A39               	incf	sprintf@prec^(0+128),w
  3061     0A76  1D03               	btfss	3,2
  3062     0A77  2A79               	goto	u3561
  3063     0A78  2A7A               	goto	u3560
  3064     0A79                     u3561:
  3065     0A79  2A3C               	goto	l2676
  3066     0A7A                     u3560:
  3067     0A7A                     l2684:
  3068                           
  3069                           ;C:\Program Files\Microchip\xc8\v2.40\pic\sources\c90\common\doprnt.c: 553:  while((c = 
      +                          *f++)) {
  3070     0A7A  3001               	movlw	1
  3071     0A7B  07B0               	addwf	sprintf@f^(0+128),f
  3072     0A7C  30FF               	movlw	-1
  3073     0A7D  0730               	addwf	sprintf@f^(0+128),w
  3074     0A7E  0084               	movwf	4
  3075     0A7F  160A  118A  200A  120A  158A  	fcall	stringdir
  3076     0A84  00BE               	movwf	sprintf@c^(0+128)
  3077     0A85  083E               	movf	sprintf@c^(0+128),w
  3078     0A86  1D03               	btfss	3,2
  3079     0A87  2A89               	goto	u3571
  3080     0A88  2A8A               	goto	u3570
  3081     0A89                     u3571:
  3082     0A89  29A4               	goto	l2628
  3083     0A8A                     u3570:
  3084     0A8A                     l2686:
  3085                           
  3086                           ;C:\Program Files\Microchip\xc8\v2.40\pic\sources\c90\common\doprnt.c: 1564:  *sp = 0;
  3087     0A8A  083D               	movf	sprintf@sp^(0+128),w
  3088     0A8B  0084               	movwf	4
  3089     0A8C  1783               	bsf	3,7	;select IRP bank2
  3090     0A8D  0180               	clrf	0
  3091     0A8E                     l277:
  3092     0A8E  0008               	return
  3093     0A8F                     __end_of_sprintf:
  3094                           
  3095                           	psect	text4
  3096     1477                     __ptext4:	
  3097 ;; *************** function ___lwmod *****************
  3098 ;; Defined at:
  3099 ;;		line 5 in file "C:\Program Files\Microchip\xc8\v2.40\pic\sources\c90\common\lwmod.c"
  3100 ;; Parameters:    Size  Location     Type
  3101 ;;  divisor         2    8[COMMON] unsigned int 
  3102 ;;  dividend        2   10[COMMON] unsigned int 
  3103 ;; Auto vars:     Size  Location     Type
  3104 ;;  counter         1   13[COMMON] unsigned char 
  3105 ;; Return value:  Size  Location     Type
  3106 ;;                  2    8[COMMON] unsigned int 
  3107 ;; Registers used:
  3108 ;;		wreg, status,2, status,0
  3109 ;; Tracked objects:
  3110 ;;		On entry : 0/0
  3111 ;;		On exit  : 0/0
  3112 ;;		Unchanged: 0/0
  3113 ;; Data sizes:     COMMON   BANK0   BANK1   BANK3   BANK2
  3114 ;;      Params:         4       0       0       0       0
  3115 ;;      Locals:         1       0       0       0       0
  3116 ;;      Temps:          1       0       0       0       0
  3117 ;;      Totals:         6       0       0       0       0
  3118 ;;Total ram usage:        6 bytes
  3119 ;; Hardware stack levels used: 1
  3120 ;; This function calls:
  3121 ;;		Nothing
  3122 ;; This function is called by:
  3123 ;;		_sprintf
  3124 ;; This function uses a non-reentrant model
  3125 ;;
  3126                           
  3127     1477                     ___lwmod:	
  3128                           ;psect for function ___lwmod
  3129                           
  3130     1477                     l2460:	
  3131                           ;incstack = 0
  3132                           ; Regs used in ___lwmod: [wreg+status,2+status,0]
  3133                           
  3134     1477  0878               	movf	___lwmod@divisor,w
  3135     1478  0479               	iorwf	___lwmod@divisor+1,w
  3136     1479  1903               	btfsc	3,2
  3137     147A  2C7C               	goto	u3231
  3138     147B  2C7D               	goto	u3230
  3139     147C                     u3231:
  3140     147C  2CAC               	goto	l2478
  3141     147D                     u3230:
  3142     147D                     l2462:
  3143     147D  01FD               	clrf	___lwmod@counter
  3144     147E  0AFD               	incf	___lwmod@counter,f
  3145     147F  2C8B               	goto	l2468
  3146     1480                     l2464:
  3147     1480  3001               	movlw	1
  3148     1481                     u3245:
  3149     1481  1003               	clrc
  3150     1482  0DF8               	rlf	___lwmod@divisor,f
  3151     1483  0DF9               	rlf	___lwmod@divisor+1,f
  3152     1484  3EFF               	addlw	-1
  3153     1485  1D03               	skipz
  3154     1486  2C81               	goto	u3245
  3155     1487                     l2466:
  3156     1487  3001               	movlw	1
  3157     1488  00FC               	movwf	??___lwmod
  3158     1489  087C               	movf	??___lwmod,w
  3159     148A  07FD               	addwf	___lwmod@counter,f
  3160     148B                     l2468:
  3161     148B  1FF9               	btfss	___lwmod@divisor+1,7
  3162     148C  2C8E               	goto	u3251
  3163     148D  2C8F               	goto	u3250
  3164     148E                     u3251:
  3165     148E  2C80               	goto	l2464
  3166     148F                     u3250:
  3167     148F                     l2470:
  3168     148F  0879               	movf	___lwmod@divisor+1,w
  3169     1490  027B               	subwf	___lwmod@dividend+1,w
  3170     1491  1D03               	skipz
  3171     1492  2C95               	goto	u3265
  3172     1493  0878               	movf	___lwmod@divisor,w
  3173     1494  027A               	subwf	___lwmod@dividend,w
  3174     1495                     u3265:
  3175     1495  1C03               	skipc
  3176     1496  2C98               	goto	u3261
  3177     1497  2C99               	goto	u3260
  3178     1498                     u3261:
  3179     1498  2C9F               	goto	l2474
  3180     1499                     u3260:
  3181     1499                     l2472:
  3182     1499  0878               	movf	___lwmod@divisor,w
  3183     149A  02FA               	subwf	___lwmod@dividend,f
  3184     149B  0879               	movf	___lwmod@divisor+1,w
  3185     149C  1C03               	skipc
  3186     149D  03FB               	decf	___lwmod@dividend+1,f
  3187     149E  02FB               	subwf	___lwmod@dividend+1,f
  3188     149F                     l2474:
  3189     149F  3001               	movlw	1
  3190     14A0                     u3275:
  3191     14A0  1003               	clrc
  3192     14A1  0CF9               	rrf	___lwmod@divisor+1,f
  3193     14A2  0CF8               	rrf	___lwmod@divisor,f
  3194     14A3  3EFF               	addlw	-1
  3195     14A4  1D03               	skipz
  3196     14A5  2CA0               	goto	u3275
  3197     14A6                     l2476:
  3198     14A6  3001               	movlw	1
  3199     14A7  02FD               	subwf	___lwmod@counter,f
  3200     14A8  1D03               	btfss	3,2
  3201     14A9  2CAB               	goto	u3281
  3202     14AA  2CAC               	goto	u3280
  3203     14AB                     u3281:
  3204     14AB  2C8F               	goto	l2470
  3205     14AC                     u3280:
  3206     14AC                     l2478:
  3207     14AC  087B               	movf	___lwmod@dividend+1,w
  3208     14AD  00F9               	movwf	?___lwmod+1
  3209     14AE  087A               	movf	___lwmod@dividend,w
  3210     14AF  00F8               	movwf	?___lwmod
  3211     14B0                     l563:
  3212     14B0  0008               	return
  3213     14B1                     __end_of___lwmod:
  3214                           
  3215                           	psect	text5
  3216     14F5                     __ptext5:	
  3217 ;; *************** function ___lwdiv *****************
  3218 ;; Defined at:
  3219 ;;		line 5 in file "C:\Program Files\Microchip\xc8\v2.40\pic\sources\c90\common\lwdiv.c"
  3220 ;; Parameters:    Size  Location     Type
  3221 ;;  divisor         2    0[COMMON] unsigned int 
  3222 ;;  dividend        2    2[COMMON] unsigned int 
  3223 ;; Auto vars:     Size  Location     Type
  3224 ;;  quotient        2    5[COMMON] unsigned int 
  3225 ;;  counter         1    7[COMMON] unsigned char 
  3226 ;; Return value:  Size  Location     Type
  3227 ;;                  2    0[COMMON] unsigned int 
  3228 ;; Registers used:
  3229 ;;		wreg, status,2, status,0
  3230 ;; Tracked objects:
  3231 ;;		On entry : 0/0
  3232 ;;		On exit  : 0/0
  3233 ;;		Unchanged: 0/0
  3234 ;; Data sizes:     COMMON   BANK0   BANK1   BANK3   BANK2
  3235 ;;      Params:         4       0       0       0       0
  3236 ;;      Locals:         3       0       0       0       0
  3237 ;;      Temps:          1       0       0       0       0
  3238 ;;      Totals:         8       0       0       0       0
  3239 ;;Total ram usage:        8 bytes
  3240 ;; Hardware stack levels used: 1
  3241 ;; This function calls:
  3242 ;;		Nothing
  3243 ;; This function is called by:
  3244 ;;		_sprintf
  3245 ;; This function uses a non-reentrant model
  3246 ;;
  3247                           
  3248     14F5                     ___lwdiv:	
  3249                           ;psect for function ___lwdiv
  3250                           
  3251     14F5                     l2434:	
  3252                           ;incstack = 0
  3253                           ; Regs used in ___lwdiv: [wreg+status,2+status,0]
  3254                           
  3255     14F5  01F5               	clrf	___lwdiv@quotient
  3256     14F6  01F6               	clrf	___lwdiv@quotient+1
  3257     14F7                     l2436:
  3258     14F7  0870               	movf	___lwdiv@divisor,w
  3259     14F8  0471               	iorwf	___lwdiv@divisor+1,w
  3260     14F9  1903               	btfsc	3,2
  3261     14FA  2CFC               	goto	u3161
  3262     14FB  2CFD               	goto	u3160
  3263     14FC                     u3161:
  3264     14FC  2D34               	goto	l2456
  3265     14FD                     u3160:
  3266     14FD                     l2438:
  3267     14FD  01F7               	clrf	___lwdiv@counter
  3268     14FE  0AF7               	incf	___lwdiv@counter,f
  3269     14FF  2D0B               	goto	l2444
  3270     1500                     l2440:
  3271     1500  3001               	movlw	1
  3272     1501                     u3175:
  3273     1501  1003               	clrc
  3274     1502  0DF0               	rlf	___lwdiv@divisor,f
  3275     1503  0DF1               	rlf	___lwdiv@divisor+1,f
  3276     1504  3EFF               	addlw	-1
  3277     1505  1D03               	skipz
  3278     1506  2D01               	goto	u3175
  3279     1507                     l2442:
  3280     1507  3001               	movlw	1
  3281     1508  00F4               	movwf	??___lwdiv
  3282     1509  0874               	movf	??___lwdiv,w
  3283     150A  07F7               	addwf	___lwdiv@counter,f
  3284     150B                     l2444:
  3285     150B  1FF1               	btfss	___lwdiv@divisor+1,7
  3286     150C  2D0E               	goto	u3181
  3287     150D  2D0F               	goto	u3180
  3288     150E                     u3181:
  3289     150E  2D00               	goto	l2440
  3290     150F                     u3180:
  3291     150F                     l2446:
  3292     150F  3001               	movlw	1
  3293     1510                     u3195:
  3294     1510  1003               	clrc
  3295     1511  0DF5               	rlf	___lwdiv@quotient,f
  3296     1512  0DF6               	rlf	___lwdiv@quotient+1,f
  3297     1513  3EFF               	addlw	-1
  3298     1514  1D03               	skipz
  3299     1515  2D10               	goto	u3195
  3300     1516  0871               	movf	___lwdiv@divisor+1,w
  3301     1517  0273               	subwf	___lwdiv@dividend+1,w
  3302     1518  1D03               	skipz
  3303     1519  2D1C               	goto	u3205
  3304     151A  0870               	movf	___lwdiv@divisor,w
  3305     151B  0272               	subwf	___lwdiv@dividend,w
  3306     151C                     u3205:
  3307     151C  1C03               	skipc
  3308     151D  2D1F               	goto	u3201
  3309     151E  2D20               	goto	u3200
  3310     151F                     u3201:
  3311     151F  2D27               	goto	l2452
  3312     1520                     u3200:
  3313     1520                     l2448:
  3314     1520  0870               	movf	___lwdiv@divisor,w
  3315     1521  02F2               	subwf	___lwdiv@dividend,f
  3316     1522  0871               	movf	___lwdiv@divisor+1,w
  3317     1523  1C03               	skipc
  3318     1524  03F3               	decf	___lwdiv@dividend+1,f
  3319     1525  02F3               	subwf	___lwdiv@dividend+1,f
  3320     1526                     l2450:
  3321     1526  1475               	bsf	___lwdiv@quotient,0
  3322     1527                     l2452:
  3323     1527  3001               	movlw	1
  3324     1528                     u3215:
  3325     1528  1003               	clrc
  3326     1529  0CF1               	rrf	___lwdiv@divisor+1,f
  3327     152A  0CF0               	rrf	___lwdiv@divisor,f
  3328     152B  3EFF               	addlw	-1
  3329     152C  1D03               	skipz
  3330     152D  2D28               	goto	u3215
  3331     152E                     l2454:
  3332     152E  3001               	movlw	1
  3333     152F  02F7               	subwf	___lwdiv@counter,f
  3334     1530  1D03               	btfss	3,2
  3335     1531  2D33               	goto	u3221
  3336     1532  2D34               	goto	u3220
  3337     1533                     u3221:
  3338     1533  2D0F               	goto	l2446
  3339     1534                     u3220:
  3340     1534                     l2456:
  3341     1534  0876               	movf	___lwdiv@quotient+1,w
  3342     1535  00F1               	movwf	?___lwdiv+1
  3343     1536  0875               	movf	___lwdiv@quotient,w
  3344     1537  00F0               	movwf	?___lwdiv
  3345     1538                     l553:
  3346     1538  0008               	return
  3347     1539                     __end_of___lwdiv:
  3348                           
  3349                           	psect	text6
  3350     0A8F                     __ptext6:	
  3351 ;; *************** function _log *****************
  3352 ;; Defined at:
  3353 ;;		line 5 in file "C:\Program Files\Microchip\xc8\v2.40\pic\sources\c90\common\log.c"
  3354 ;; Parameters:    Size  Location     Type
  3355 ;;  x               4   16[BANK1 ] unsigned int 
  3356 ;; Auto vars:     Size  Location     Type
  3357 ;;  exponent        2   77[BANK0 ] int 
  3358 ;; Return value:  Size  Location     Type
  3359 ;;                  4   16[BANK1 ] int 
  3360 ;; Registers used:
  3361 ;;		wreg, fsr0l, fsr0h, status,2, status,0, btemp+1, pclath, cstack
  3362 ;; Tracked objects:
  3363 ;;		On entry : 0/0
  3364 ;;		On exit  : 0/0
  3365 ;;		Unchanged: 0/0
  3366 ;; Data sizes:     COMMON   BANK0   BANK1   BANK3   BANK2
  3367 ;;      Params:         0       0       4       0       0
  3368 ;;      Locals:         0       2       0       0       0
  3369 ;;      Temps:          0       0       0       0       0
  3370 ;;      Totals:         0       2       4       0       0
  3371 ;;Total ram usage:        6 bytes
  3372 ;; Hardware stack levels used: 1
  3373 ;; Hardware stack levels required when called: 3
  3374 ;; This function calls:
  3375 ;;		___fladd
  3376 ;;		___fleq
  3377 ;;		___flge
  3378 ;;		___flmul
  3379 ;;		___xxtofl
  3380 ;;		_eval_poly
  3381 ;;		_frexp
  3382 ;; This function is called by:
  3383 ;;		_main
  3384 ;; This function uses a non-reentrant model
  3385 ;;
  3386                           
  3387     0A8F                     _log:	
  3388                           ;psect for function _log
  3389                           
  3390     0A8F                     l3500:	
  3391                           ;incstack = 0
  3392                           ; Regs used in _log: [wreg-fsr0h+status,2+status,0+btemp+1+pclath+cstack]
  3393                           
  3394     0A8F  1683               	bsf	3,5	;RP0=1, select bank1
  3395     0A90  1303               	bcf	3,6	;RP1=0, select bank1
  3396     0A91  0833               	movf	(log@x+3)^(0+128),w
  3397     0A92  00F3               	movwf	___flge@ff1+3
  3398     0A93  0832               	movf	(log@x+2)^(0+128),w
  3399     0A94  00F2               	movwf	___flge@ff1+2
  3400     0A95  0831               	movf	(log@x+1)^(0+128),w
  3401     0A96  00F1               	movwf	___flge@ff1+1
  3402     0A97  0830               	movf	log@x^(0+128),w
  3403     0A98  00F0               	movwf	___flge@ff1
  3404     0A99  3000               	movlw	0
  3405     0A9A  00F7               	movwf	___flge@ff2+3
  3406     0A9B  3000               	movlw	0
  3407     0A9C  00F6               	movwf	___flge@ff2+2
  3408     0A9D  3000               	movlw	0
  3409     0A9E  00F5               	movwf	___flge@ff2+1
  3410     0A9F  3000               	movlw	0
  3411     0AA0  00F4               	movwf	___flge@ff2
  3412     0AA1  160A  118A  275E  120A  158A  	fcall	___flge
  3413     0AA6  1803               	btfsc	3,0
  3414     0AA7  2AA9               	goto	u5231
  3415     0AA8  2AAA               	goto	u5230
  3416     0AA9                     u5231:
  3417     0AA9  2AB9               	goto	l3506
  3418     0AAA                     u5230:
  3419     0AAA                     l3502:
  3420     0AAA  3021               	movlw	33
  3421     0AAB  1683               	bsf	3,5	;RP0=1, select bank1
  3422     0AAC  1303               	bcf	3,6	;RP1=0, select bank1
  3423     0AAD  00C3               	movwf	_errno^(0+128)
  3424     0AAE  3000               	movlw	0
  3425     0AAF  00C4               	movwf	(_errno^(0+128)+1)
  3426     0AB0  3000               	movlw	0
  3427     0AB1  00B3               	movwf	(?_log+3)^(0+128)
  3428     0AB2  3000               	movlw	0
  3429     0AB3  00B2               	movwf	(?_log+2)^(0+128)
  3430     0AB4  3000               	movlw	0
  3431     0AB5  00B1               	movwf	(?_log+1)^(0+128)
  3432     0AB6  3000               	movlw	0
  3433     0AB7  00B0               	movwf	?_log^(0+128)
  3434     0AB8  2BD4               	goto	l741
  3435     0AB9                     l3506:
  3436     0AB9  1683               	bsf	3,5	;RP0=1, select bank1
  3437     0ABA  1303               	bcf	3,6	;RP1=0, select bank1
  3438     0ABB  0833               	movf	(log@x+3)^(0+128),w
  3439     0ABC  00F3               	movwf	___fleq@ff1+3
  3440     0ABD  0832               	movf	(log@x+2)^(0+128),w
  3441     0ABE  00F2               	movwf	___fleq@ff1+2
  3442     0ABF  0831               	movf	(log@x+1)^(0+128),w
  3443     0AC0  00F1               	movwf	___fleq@ff1+1
  3444     0AC1  0830               	movf	log@x^(0+128),w
  3445     0AC2  00F0               	movwf	___fleq@ff1
  3446     0AC3  3000               	movlw	0
  3447     0AC4  00F7               	movwf	___fleq@ff2+3
  3448     0AC5  3000               	movlw	0
  3449     0AC6  00F6               	movwf	___fleq@ff2+2
  3450     0AC7  3000               	movlw	0
  3451     0AC8  00F5               	movwf	___fleq@ff2+1
  3452     0AC9  3000               	movlw	0
  3453     0ACA  00F4               	movwf	___fleq@ff2
  3454     0ACB  160A  118A  2539  120A  158A  	fcall	___fleq
  3455     0AD0  1C03               	btfss	3,0
  3456     0AD1  2AD3               	goto	u5241
  3457     0AD2  2AD4               	goto	u5240
  3458     0AD3                     u5241:
  3459     0AD3  2AE3               	goto	l3512
  3460     0AD4                     u5240:
  3461     0AD4                     l3508:
  3462     0AD4  3022               	movlw	34
  3463     0AD5  1683               	bsf	3,5	;RP0=1, select bank1
  3464     0AD6  1303               	bcf	3,6	;RP1=0, select bank1
  3465     0AD7  00C3               	movwf	_errno^(0+128)
  3466     0AD8  3000               	movlw	0
  3467     0AD9  00C4               	movwf	(_errno^(0+128)+1)
  3468     0ADA  3000               	movlw	0
  3469     0ADB  00B3               	movwf	(?_log+3)^(0+128)
  3470     0ADC  3000               	movlw	0
  3471     0ADD  00B2               	movwf	(?_log+2)^(0+128)
  3472     0ADE  3000               	movlw	0
  3473     0ADF  00B1               	movwf	(?_log+1)^(0+128)
  3474     0AE0  3000               	movlw	0
  3475     0AE1  00B0               	movwf	?_log^(0+128)
  3476     0AE2  2BD4               	goto	l741
  3477     0AE3                     l3512:
  3478     0AE3  30BF               	movlw	191
  3479     0AE4  1283               	bcf	3,5	;RP0=0, select bank0
  3480     0AE5  1303               	bcf	3,6	;RP1=0, select bank0
  3481     0AE6  00DC               	movwf	___fladd@b+3
  3482     0AE7  3080               	movlw	128
  3483     0AE8  00DB               	movwf	___fladd@b+2
  3484     0AE9  3000               	movlw	0
  3485     0AEA  00DA               	movwf	___fladd@b+1
  3486     0AEB  3000               	movlw	0
  3487     0AEC  00D9               	movwf	___fladd@b
  3488     0AED  3040               	movlw	64
  3489     0AEE  00A8               	movwf	___flmul@b+3
  3490     0AEF  3000               	movlw	0
  3491     0AF0  00A7               	movwf	___flmul@b+2
  3492     0AF1  3000               	movlw	0
  3493     0AF2  00A6               	movwf	___flmul@b+1
  3494     0AF3  3000               	movlw	0
  3495     0AF4  00A5               	movwf	___flmul@b
  3496     0AF5  306D               	movlw	(low (log@exponent| 0))& (0+255)
  3497     0AF6  00A4               	movwf	frexp@eptr
  3498     0AF7  1683               	bsf	3,5	;RP0=1, select bank1
  3499     0AF8  1303               	bcf	3,6	;RP1=0, select bank1
  3500     0AF9  0833               	movf	(log@x+3)^(0+128),w
  3501     0AFA  1283               	bcf	3,5	;RP0=0, select bank0
  3502     0AFB  1303               	bcf	3,6	;RP1=0, select bank0
  3503     0AFC  00A3               	movwf	frexp@value+3
  3504     0AFD  1683               	bsf	3,5	;RP0=1, select bank1
  3505     0AFE  1303               	bcf	3,6	;RP1=0, select bank1
  3506     0AFF  0832               	movf	(log@x+2)^(0+128),w
  3507     0B00  1283               	bcf	3,5	;RP0=0, select bank0
  3508     0B01  1303               	bcf	3,6	;RP1=0, select bank0
  3509     0B02  00A2               	movwf	frexp@value+2
  3510     0B03  1683               	bsf	3,5	;RP0=1, select bank1
  3511     0B04  1303               	bcf	3,6	;RP1=0, select bank1
  3512     0B05  0831               	movf	(log@x+1)^(0+128),w
  3513     0B06  1283               	bcf	3,5	;RP0=0, select bank0
  3514     0B07  1303               	bcf	3,6	;RP1=0, select bank0
  3515     0B08  00A1               	movwf	frexp@value+1
  3516     0B09  1683               	bsf	3,5	;RP0=1, select bank1
  3517     0B0A  1303               	bcf	3,6	;RP1=0, select bank1
  3518     0B0B  0830               	movf	log@x^(0+128),w
  3519     0B0C  1283               	bcf	3,5	;RP0=0, select bank0
  3520     0B0D  1303               	bcf	3,6	;RP1=0, select bank0
  3521     0B0E  00A0               	movwf	frexp@value
  3522     0B0F  160A  118A  25D7  120A  158A  	fcall	_frexp
  3523     0B14  1283               	bcf	3,5	;RP0=0, select bank0
  3524     0B15  1303               	bcf	3,6	;RP1=0, select bank0
  3525     0B16  0823               	movf	?_frexp+3,w
  3526     0B17  00AC               	movwf	___flmul@a+3
  3527     0B18  0822               	movf	?_frexp+2,w
  3528     0B19  00AB               	movwf	___flmul@a+2
  3529     0B1A  0821               	movf	?_frexp+1,w
  3530     0B1B  00AA               	movwf	___flmul@a+1
  3531     0B1C  0820               	movf	?_frexp,w
  3532     0B1D  00A9               	movwf	___flmul@a
  3533     0B1E  120A  118A  2024  120A  158A  	fcall	___flmul
  3534     0B23  1283               	bcf	3,5	;RP0=0, select bank0
  3535     0B24  1303               	bcf	3,6	;RP1=0, select bank0
  3536     0B25  0828               	movf	?___flmul+3,w
  3537     0B26  00E0               	movwf	___fladd@a+3
  3538     0B27  0827               	movf	?___flmul+2,w
  3539     0B28  00DF               	movwf	___fladd@a+2
  3540     0B29  0826               	movf	?___flmul+1,w
  3541     0B2A  00DE               	movwf	___fladd@a+1
  3542     0B2B  0825               	movf	?___flmul,w
  3543     0B2C  00DD               	movwf	___fladd@a
  3544     0B2D  120A  158A  25A8  120A  158A  	fcall	___fladd
  3545     0B32  1283               	bcf	3,5	;RP0=0, select bank0
  3546     0B33  1303               	bcf	3,6	;RP1=0, select bank0
  3547     0B34  085C               	movf	?___fladd+3,w
  3548     0B35  1683               	bsf	3,5	;RP0=1, select bank1
  3549     0B36  1303               	bcf	3,6	;RP1=0, select bank1
  3550     0B37  00B3               	movwf	(log@x+3)^(0+128)
  3551     0B38  1283               	bcf	3,5	;RP0=0, select bank0
  3552     0B39  1303               	bcf	3,6	;RP1=0, select bank0
  3553     0B3A  085B               	movf	?___fladd+2,w
  3554     0B3B  1683               	bsf	3,5	;RP0=1, select bank1
  3555     0B3C  1303               	bcf	3,6	;RP1=0, select bank1
  3556     0B3D  00B2               	movwf	(log@x+2)^(0+128)
  3557     0B3E  1283               	bcf	3,5	;RP0=0, select bank0
  3558     0B3F  1303               	bcf	3,6	;RP1=0, select bank0
  3559     0B40  085A               	movf	?___fladd+1,w
  3560     0B41  1683               	bsf	3,5	;RP0=1, select bank1
  3561     0B42  1303               	bcf	3,6	;RP1=0, select bank1
  3562     0B43  00B1               	movwf	(log@x+1)^(0+128)
  3563     0B44  1283               	bcf	3,5	;RP0=0, select bank0
  3564     0B45  1303               	bcf	3,6	;RP1=0, select bank0
  3565     0B46  0859               	movf	?___fladd,w
  3566     0B47  1683               	bsf	3,5	;RP0=1, select bank1
  3567     0B48  1303               	bcf	3,6	;RP1=0, select bank1
  3568     0B49  00B0               	movwf	log@x^(0+128)
  3569     0B4A                     l3514:
  3570     0B4A  30FF               	movlw	255
  3571     0B4B  1283               	bcf	3,5	;RP0=0, select bank0
  3572     0B4C  1303               	bcf	3,6	;RP1=0, select bank0
  3573     0B4D  07ED               	addwf	log@exponent,f
  3574     0B4E  1803               	skipnc
  3575     0B4F  0AEE               	incf	log@exponent+1,f
  3576     0B50  30FF               	movlw	255
  3577     0B51  07EE               	addwf	log@exponent+1,f
  3578     0B52                     l3516:
  3579     0B52  1683               	bsf	3,5	;RP0=1, select bank1
  3580     0B53  1303               	bcf	3,6	;RP1=0, select bank1
  3581     0B54  0833               	movf	(log@x+3)^(0+128),w
  3582     0B55  00A3               	movwf	(eval_poly@x+3)^(0+128)
  3583     0B56  0832               	movf	(log@x+2)^(0+128),w
  3584     0B57  00A2               	movwf	(eval_poly@x+2)^(0+128)
  3585     0B58  0831               	movf	(log@x+1)^(0+128),w
  3586     0B59  00A1               	movwf	(eval_poly@x+1)^(0+128)
  3587     0B5A  0830               	movf	log@x^(0+128),w
  3588     0B5B  00A0               	movwf	eval_poly@x^(0+128)
  3589     0B5C  300B               	movlw	(low ((log@coeff-__stringbase)| (0+32768)))& (0+255)
  3590     0B5D  00A4               	movwf	eval_poly@d^(0+128)
  3591     0B5E  3008               	movlw	8
  3592     0B5F  00A5               	movwf	eval_poly@n^(0+128)
  3593     0B60  3000               	movlw	0
  3594     0B61  00A6               	movwf	(eval_poly@n^(0+128)+1)
  3595     0B62  120A  158A  20C4  120A  158A  	fcall	_eval_poly
  3596     0B67  1683               	bsf	3,5	;RP0=1, select bank1
  3597     0B68  1303               	bcf	3,6	;RP1=0, select bank1
  3598     0B69  0823               	movf	(?_eval_poly+3)^(0+128),w
  3599     0B6A  00B3               	movwf	(log@x+3)^(0+128)
  3600     0B6B  0822               	movf	(?_eval_poly+2)^(0+128),w
  3601     0B6C  00B2               	movwf	(log@x+2)^(0+128)
  3602     0B6D  0821               	movf	(?_eval_poly+1)^(0+128),w
  3603     0B6E  00B1               	movwf	(log@x+1)^(0+128)
  3604     0B6F  0820               	movf	?_eval_poly^(0+128),w
  3605     0B70  00B0               	movwf	log@x^(0+128)
  3606     0B71                     l3518:
  3607     0B71  0833               	movf	(log@x+3)^(0+128),w
  3608     0B72  1283               	bcf	3,5	;RP0=0, select bank0
  3609     0B73  1303               	bcf	3,6	;RP1=0, select bank0
  3610     0B74  00DC               	movwf	___fladd@b+3
  3611     0B75  1683               	bsf	3,5	;RP0=1, select bank1
  3612     0B76  1303               	bcf	3,6	;RP1=0, select bank1
  3613     0B77  0832               	movf	(log@x+2)^(0+128),w
  3614     0B78  1283               	bcf	3,5	;RP0=0, select bank0
  3615     0B79  1303               	bcf	3,6	;RP1=0, select bank0
  3616     0B7A  00DB               	movwf	___fladd@b+2
  3617     0B7B  1683               	bsf	3,5	;RP0=1, select bank1
  3618     0B7C  1303               	bcf	3,6	;RP1=0, select bank1
  3619     0B7D  0831               	movf	(log@x+1)^(0+128),w
  3620     0B7E  1283               	bcf	3,5	;RP0=0, select bank0
  3621     0B7F  1303               	bcf	3,6	;RP1=0, select bank0
  3622     0B80  00DA               	movwf	___fladd@b+1
  3623     0B81  1683               	bsf	3,5	;RP0=1, select bank1
  3624     0B82  1303               	bcf	3,6	;RP1=0, select bank1
  3625     0B83  0830               	movf	log@x^(0+128),w
  3626     0B84  1283               	bcf	3,5	;RP0=0, select bank0
  3627     0B85  1303               	bcf	3,6	;RP1=0, select bank0
  3628     0B86  00D9               	movwf	___fladd@b
  3629     0B87  303F               	movlw	63
  3630     0B88  00A8               	movwf	___flmul@b+3
  3631     0B89  3031               	movlw	49
  3632     0B8A  00A7               	movwf	___flmul@b+2
  3633     0B8B  3072               	movlw	114
  3634     0B8C  00A6               	movwf	___flmul@b+1
  3635     0B8D  3018               	movlw	24
  3636     0B8E  00A5               	movwf	___flmul@b
  3637     0B8F  086D               	movf	log@exponent,w
  3638     0B90  00F0               	movwf	___xxtofl@val
  3639     0B91  086E               	movf	log@exponent+1,w
  3640     0B92  00F1               	movwf	___xxtofl@val+1
  3641     0B93  3000               	movlw	0
  3642     0B94  1BF1               	btfsc	___xxtofl@val+1,7
  3643     0B95  30FF               	movlw	255
  3644     0B96  00F2               	movwf	___xxtofl@val+2
  3645     0B97  00F3               	movwf	___xxtofl@val+3
  3646     0B98  3001               	movlw	1
  3647     0B99  120A  158A  200C  120A  158A  	fcall	___xxtofl
  3648     0B9E  0873               	movf	?___xxtofl+3,w
  3649     0B9F  1283               	bcf	3,5	;RP0=0, select bank0
  3650     0BA0  1303               	bcf	3,6	;RP1=0, select bank0
  3651     0BA1  00AC               	movwf	___flmul@a+3
  3652     0BA2  0872               	movf	?___xxtofl+2,w
  3653     0BA3  00AB               	movwf	___flmul@a+2
  3654     0BA4  0871               	movf	?___xxtofl+1,w
  3655     0BA5  00AA               	movwf	___flmul@a+1
  3656     0BA6  0870               	movf	?___xxtofl,w
  3657     0BA7  00A9               	movwf	___flmul@a
  3658     0BA8  120A  118A  2024  120A  158A  	fcall	___flmul
  3659     0BAD  1283               	bcf	3,5	;RP0=0, select bank0
  3660     0BAE  1303               	bcf	3,6	;RP1=0, select bank0
  3661     0BAF  0828               	movf	?___flmul+3,w
  3662     0BB0  00E0               	movwf	___fladd@a+3
  3663     0BB1  0827               	movf	?___flmul+2,w
  3664     0BB2  00DF               	movwf	___fladd@a+2
  3665     0BB3  0826               	movf	?___flmul+1,w
  3666     0BB4  00DE               	movwf	___fladd@a+1
  3667     0BB5  0825               	movf	?___flmul,w
  3668     0BB6  00DD               	movwf	___fladd@a
  3669     0BB7  120A  158A  25A8  120A  158A  	fcall	___fladd
  3670     0BBC  1283               	bcf	3,5	;RP0=0, select bank0
  3671     0BBD  1303               	bcf	3,6	;RP1=0, select bank0
  3672     0BBE  085C               	movf	?___fladd+3,w
  3673     0BBF  1683               	bsf	3,5	;RP0=1, select bank1
  3674     0BC0  1303               	bcf	3,6	;RP1=0, select bank1
  3675     0BC1  00B3               	movwf	(?_log+3)^(0+128)
  3676     0BC2  1283               	bcf	3,5	;RP0=0, select bank0
  3677     0BC3  1303               	bcf	3,6	;RP1=0, select bank0
  3678     0BC4  085B               	movf	?___fladd+2,w
  3679     0BC5  1683               	bsf	3,5	;RP0=1, select bank1
  3680     0BC6  1303               	bcf	3,6	;RP1=0, select bank1
  3681     0BC7  00B2               	movwf	(?_log+2)^(0+128)
  3682     0BC8  1283               	bcf	3,5	;RP0=0, select bank0
  3683     0BC9  1303               	bcf	3,6	;RP1=0, select bank0
  3684     0BCA  085A               	movf	?___fladd+1,w
  3685     0BCB  1683               	bsf	3,5	;RP0=1, select bank1
  3686     0BCC  1303               	bcf	3,6	;RP1=0, select bank1
  3687     0BCD  00B1               	movwf	(?_log+1)^(0+128)
  3688     0BCE  1283               	bcf	3,5	;RP0=0, select bank0
  3689     0BCF  1303               	bcf	3,6	;RP1=0, select bank0
  3690     0BD0  0859               	movf	?___fladd,w
  3691     0BD1  1683               	bsf	3,5	;RP0=1, select bank1
  3692     0BD2  1303               	bcf	3,6	;RP1=0, select bank1
  3693     0BD3  00B0               	movwf	?_log^(0+128)
  3694     0BD4                     l741:
  3695     0BD4  0008               	return
  3696     0BD5                     __end_of_log:
  3697                           
  3698                           	psect	text7
  3699     15D7                     __ptext7:	
  3700 ;; *************** function _frexp *****************
  3701 ;; Defined at:
  3702 ;;		line 254 in file "C:\Program Files\Microchip\xc8\v2.40\pic\sources\c90\common\frexp.c"
  3703 ;; Parameters:    Size  Location     Type
  3704 ;;  value           4    0[BANK0 ] int 
  3705 ;;  eptr            1    4[BANK0 ] PTR int 
  3706 ;;		 -> log@exponent(2), 
  3707 ;; Auto vars:     Size  Location     Type
  3708 ;;		None
  3709 ;; Return value:  Size  Location     Type
  3710 ;;                  4    0[BANK0 ] PTR int 
  3711 ;; Registers used:
  3712 ;;		wreg, fsr0l, fsr0h, status,2, status,0, btemp+1, pclath, cstack
  3713 ;; Tracked objects:
  3714 ;;		On entry : 0/0
  3715 ;;		On exit  : 0/0
  3716 ;;		Unchanged: 0/0
  3717 ;; Data sizes:     COMMON   BANK0   BANK1   BANK3   BANK2
  3718 ;;      Params:         0       5       0       0       0
  3719 ;;      Locals:         0       0       0       0       0
  3720 ;;      Temps:          2       0       0       0       0
  3721 ;;      Totals:         2       5       0       0       0
  3722 ;;Total ram usage:        7 bytes
  3723 ;; Hardware stack levels used: 1
  3724 ;; Hardware stack levels required when called: 1
  3725 ;; This function calls:
  3726 ;;		___fleq
  3727 ;; This function is called by:
  3728 ;;		_log
  3729 ;; This function uses a non-reentrant model
  3730 ;;
  3731                           
  3732     15D7                     _frexp:	
  3733                           ;psect for function _frexp
  3734                           
  3735     15D7                     l3470:	
  3736                           ;incstack = 0
  3737                           ; Regs used in _frexp: [wreg-fsr0h+status,2+status,0+btemp+1+pclath+cstack]
  3738                           
  3739     15D7  1283               	bcf	3,5	;RP0=0, select bank0
  3740     15D8  1303               	bcf	3,6	;RP1=0, select bank0
  3741     15D9  0823               	movf	frexp@value+3,w
  3742     15DA  00F3               	movwf	___fleq@ff1+3
  3743     15DB  0822               	movf	frexp@value+2,w
  3744     15DC  00F2               	movwf	___fleq@ff1+2
  3745     15DD  0821               	movf	frexp@value+1,w
  3746     15DE  00F1               	movwf	___fleq@ff1+1
  3747     15DF  0820               	movf	frexp@value,w
  3748     15E0  00F0               	movwf	___fleq@ff1
  3749     15E1  3000               	movlw	0
  3750     15E2  00F7               	movwf	___fleq@ff2+3
  3751     15E3  3000               	movlw	0
  3752     15E4  00F6               	movwf	___fleq@ff2+2
  3753     15E5  3000               	movlw	0
  3754     15E6  00F5               	movwf	___fleq@ff2+1
  3755     15E7  3000               	movlw	0
  3756     15E8  00F4               	movwf	___fleq@ff2
  3757     15E9  160A  118A  2539  160A  118A  	fcall	___fleq
  3758     15EE  1C03               	btfss	3,0
  3759     15EF  2DF1               	goto	u5191
  3760     15F0  2DF2               	goto	u5190
  3761     15F1                     u5191:
  3762     15F1  2E03               	goto	l3478
  3763     15F2                     u5190:
  3764     15F2                     l3472:
  3765     15F2  1283               	bcf	3,5	;RP0=0, select bank0
  3766     15F3  1303               	bcf	3,6	;RP1=0, select bank0
  3767     15F4  0824               	movf	frexp@eptr,w
  3768     15F5  0084               	movwf	4
  3769     15F6  1383               	bcf	3,7	;select IRP bank0
  3770     15F7  0180               	clrf	0
  3771     15F8  0A84               	incf	4,f
  3772     15F9  0180               	clrf	0
  3773     15FA                     l3474:
  3774     15FA  3000               	movlw	0
  3775     15FB  00A3               	movwf	?_frexp+3
  3776     15FC  3000               	movlw	0
  3777     15FD  00A2               	movwf	?_frexp+2
  3778     15FE  3000               	movlw	0
  3779     15FF  00A1               	movwf	?_frexp+1
  3780     1600  3000               	movlw	0
  3781     1601  00A0               	movwf	?_frexp
  3782     1602  2E32               	goto	l759
  3783     1603                     l3478:
  3784     1603  1283               	bcf	3,5	;RP0=0, select bank0
  3785     1604  1303               	bcf	3,6	;RP1=0, select bank0
  3786     1605  0823               	movf	frexp@value+3,w
  3787     1606  397F               	andlw	127
  3788     1607  00FC               	movwf	??_frexp
  3789     1608  01FD               	clrf	??_frexp+1
  3790     1609  1003               	clrc
  3791     160A  0DFC               	rlf	??_frexp,f
  3792     160B  0DFD               	rlf	??_frexp+1,f
  3793     160C  0824               	movf	frexp@eptr,w
  3794     160D  0084               	movwf	4
  3795     160E  087C               	movf	??_frexp,w
  3796     160F  1383               	bcf	3,7	;select IRP bank0
  3797     1610  0080               	movwf	0
  3798     1611  0A84               	incf	4,f
  3799     1612  087D               	movf	??_frexp+1,w
  3800     1613  0080               	movwf	0
  3801     1614  0D22               	rlf	frexp@value+2,w
  3802     1615  0D22               	rlf	frexp@value+2,w
  3803     1616  3901               	andlw	1
  3804     1617  00FC               	movwf	??_frexp
  3805     1618  01FD               	clrf	??_frexp+1
  3806     1619  0824               	movf	frexp@eptr,w
  3807     161A  0084               	movwf	4
  3808     161B  087C               	movf	??_frexp,w
  3809     161C  0480               	iorwf	0,f
  3810     161D  0A84               	incf	4,f
  3811     161E  087D               	movf	??_frexp+1,w
  3812     161F  0480               	iorwf	0,f
  3813     1620                     l3480:
  3814     1620  0824               	movf	frexp@eptr,w
  3815     1621  0084               	movwf	4
  3816     1622  3082               	movlw	130
  3817     1623  0780               	addwf	0,f
  3818     1624  0F84               	incfsz	4,f
  3819     1625  0800               	movf	0,w
  3820     1626  1803               	skipnc
  3821     1627  0A00               	incf	0,w
  3822     1628  00FF               	movwf	btemp+1
  3823     1629  30FF               	movlw	255
  3824     162A  077F               	addwf	btemp+1,w
  3825     162B  0080               	movwf	0
  3826     162C  0384               	decf	4,f
  3827     162D                     l3482:
  3828     162D  0823               	movf	frexp@value+3,w
  3829     162E  3980               	andlw	-128
  3830     162F  383F               	iorlw	63
  3831     1630  00A3               	movwf	frexp@value+3
  3832     1631                     l3484:
  3833     1631  13A2               	bcf	frexp@value+2,7
  3834     1632                     l3486:
  3835     1632                     l759:
  3836     1632  0008               	return
  3837     1633                     __end_of_frexp:
  3838                           
  3839                           	psect	text8
  3840     1539                     __ptext8:	
  3841 ;; *************** function ___fleq *****************
  3842 ;; Defined at:
  3843 ;;		line 4 in file "C:\Program Files\Microchip\xc8\v2.40\pic\sources\c90\common\fleq.c"
  3844 ;; Parameters:    Size  Location     Type
  3845 ;;  ff1             4    0[COMMON] PTR int 
  3846 ;;  ff2             4    4[COMMON] PTR int 
  3847 ;; Auto vars:     Size  Location     Type
  3848 ;;		None
  3849 ;; Return value:  Size  Location     Type
  3850 ;;		None               void
  3851 ;; Registers used:
  3852 ;;		wreg, status,2, status,0
  3853 ;; Tracked objects:
  3854 ;;		On entry : 0/0
  3855 ;;		On exit  : 0/0
  3856 ;;		Unchanged: 0/0
  3857 ;; Data sizes:     COMMON   BANK0   BANK1   BANK3   BANK2
  3858 ;;      Params:         8       0       0       0       0
  3859 ;;      Locals:         0       0       0       0       0
  3860 ;;      Temps:          4       0       0       0       0
  3861 ;;      Totals:        12       0       0       0       0
  3862 ;;Total ram usage:       12 bytes
  3863 ;; Hardware stack levels used: 1
  3864 ;; This function calls:
  3865 ;;		Nothing
  3866 ;; This function is called by:
  3867 ;;		_log
  3868 ;;		_frexp
  3869 ;; This function uses a non-reentrant model
  3870 ;;
  3871                           
  3872     1539                     ___fleq:	
  3873                           ;psect for function ___fleq
  3874                           
  3875     1539                     l3060:	
  3876                           ;incstack = 0
  3877                           ; Regs used in ___fleq: [wreg+status,2+status,0]
  3878                           
  3879     1539  3000               	movlw	0
  3880     153A  0570               	andwf	___fleq@ff1,w
  3881     153B  00F8               	movwf	??___fleq
  3882     153C  3000               	movlw	0
  3883     153D  0571               	andwf	___fleq@ff1+1,w
  3884     153E  00F9               	movwf	??___fleq+1
  3885     153F  3080               	movlw	128
  3886     1540  0572               	andwf	___fleq@ff1+2,w
  3887     1541  00FA               	movwf	??___fleq+2
  3888     1542  307F               	movlw	127
  3889     1543  0573               	andwf	___fleq@ff1+3,w
  3890     1544  00FB               	movwf	??___fleq+3
  3891     1545  087B               	movf	??___fleq+3,w
  3892     1546  047A               	iorwf	??___fleq+2,w
  3893     1547  0479               	iorwf	??___fleq+1,w
  3894     1548  0478               	iorwf	??___fleq,w
  3895     1549  1D03               	skipz
  3896     154A  2D4C               	goto	u4121
  3897     154B  2D4D               	goto	u4120
  3898     154C                     u4121:
  3899     154C  2D55               	goto	l450
  3900     154D                     u4120:
  3901     154D                     l3062:
  3902     154D  3000               	movlw	0
  3903     154E  00F3               	movwf	___fleq@ff1+3
  3904     154F  3000               	movlw	0
  3905     1550  00F2               	movwf	___fleq@ff1+2
  3906     1551  3000               	movlw	0
  3907     1552  00F1               	movwf	___fleq@ff1+1
  3908     1553  3000               	movlw	0
  3909     1554  00F0               	movwf	___fleq@ff1
  3910     1555                     l450:
  3911     1555  3000               	movlw	0
  3912     1556  0574               	andwf	___fleq@ff2,w
  3913     1557  00F8               	movwf	??___fleq
  3914     1558  3000               	movlw	0
  3915     1559  0575               	andwf	___fleq@ff2+1,w
  3916     155A  00F9               	movwf	??___fleq+1
  3917     155B  3080               	movlw	128
  3918     155C  0576               	andwf	___fleq@ff2+2,w
  3919     155D  00FA               	movwf	??___fleq+2
  3920     155E  307F               	movlw	127
  3921     155F  0577               	andwf	___fleq@ff2+3,w
  3922     1560  00FB               	movwf	??___fleq+3
  3923     1561  087B               	movf	??___fleq+3,w
  3924     1562  047A               	iorwf	??___fleq+2,w
  3925     1563  0479               	iorwf	??___fleq+1,w
  3926     1564  0478               	iorwf	??___fleq,w
  3927     1565  1D03               	skipz
  3928     1566  2D68               	goto	u4131
  3929     1567  2D69               	goto	u4130
  3930     1568                     u4131:
  3931     1568  2D71               	goto	l451
  3932     1569                     u4130:
  3933     1569                     l3064:
  3934     1569  3000               	movlw	0
  3935     156A  00F7               	movwf	___fleq@ff2+3
  3936     156B  3000               	movlw	0
  3937     156C  00F6               	movwf	___fleq@ff2+2
  3938     156D  3000               	movlw	0
  3939     156E  00F5               	movwf	___fleq@ff2+1
  3940     156F  3000               	movlw	0
  3941     1570  00F4               	movwf	___fleq@ff2
  3942     1571                     l451:
  3943     1571  0877               	movf	___fleq@ff2+3,w
  3944     1572  0673               	xorwf	___fleq@ff1+3,w
  3945     1573  1D03               	skipz
  3946     1574  2D7F               	goto	u4145
  3947     1575  0876               	movf	___fleq@ff2+2,w
  3948     1576  0672               	xorwf	___fleq@ff1+2,w
  3949     1577  1D03               	skipz
  3950     1578  2D7F               	goto	u4145
  3951     1579  0875               	movf	___fleq@ff2+1,w
  3952     157A  0671               	xorwf	___fleq@ff1+1,w
  3953     157B  1D03               	skipz
  3954     157C  2D7F               	goto	u4145
  3955     157D  0874               	movf	___fleq@ff2,w
  3956     157E  0670               	xorwf	___fleq@ff1,w
  3957     157F                     u4145:
  3958     157F  1903               	skipnz
  3959     1580  2D82               	goto	u4141
  3960     1581  2D83               	goto	u4140
  3961     1582                     u4141:
  3962     1582  2D85               	goto	l3068
  3963     1583                     u4140:
  3964     1583                     l3066:
  3965     1583  1003               	clrc
  3966     1584  2D86               	goto	l452
  3967     1585                     l3068:
  3968     1585  1403               	setc
  3969     1586                     l452:
  3970     1586  0008               	return
  3971     1587                     __end_of___fleq:
  3972                           
  3973                           	psect	text9
  3974     08C4                     __ptext9:	
  3975 ;; *************** function _eval_poly *****************
  3976 ;; Defined at:
  3977 ;;		line 4 in file "C:\Program Files\Microchip\xc8\v2.40\pic\sources\c90\common\evalpoly.c"
  3978 ;; Parameters:    Size  Location     Type
  3979 ;;  x               4    0[BANK1 ] PTR int 
  3980 ;;  d               1    4[BANK1 ] PTR const 
  3981 ;;		 -> log@coeff(36), 
  3982 ;;  n               2    5[BANK1 ] int 
  3983 ;; Auto vars:     Size  Location     Type
  3984 ;;  res             4   12[BANK1 ] int 
  3985 ;; Return value:  Size  Location     Type
  3986 ;;                  4    0[BANK1 ] int 
  3987 ;; Registers used:
  3988 ;;		wreg, fsr0l, fsr0h, status,2, status,0, btemp+1, pclath, cstack
  3989 ;; Tracked objects:
  3990 ;;		On entry : 0/0
  3991 ;;		On exit  : 0/0
  3992 ;;		Unchanged: 0/0
  3993 ;; Data sizes:     COMMON   BANK0   BANK1   BANK3   BANK2
  3994 ;;      Params:         0       0       7       0       0
  3995 ;;      Locals:         0       0       4       0       0
  3996 ;;      Temps:          0       0       5       0       0
  3997 ;;      Totals:         0       0      16       0       0
  3998 ;;Total ram usage:       16 bytes
  3999 ;; Hardware stack levels used: 1
  4000 ;; Hardware stack levels required when called: 2
  4001 ;; This function calls:
  4002 ;;		___fladd
  4003 ;;		___flmul
  4004 ;; This function is called by:
  4005 ;;		_log
  4006 ;; This function uses a non-reentrant model
  4007 ;;
  4008                           
  4009     08C4                     _eval_poly:	
  4010                           ;psect for function _eval_poly
  4011                           
  4012     08C4                     l3490:	
  4013                           ;incstack = 0
  4014                           ; Regs used in _eval_poly: [wreg-fsr0h+status,2+status,0+btemp+1+pclath+cstack]
  4015                           
  4016     08C4  1683               	bsf	3,5	;RP0=1, select bank1
  4017     08C5  1303               	bcf	3,6	;RP1=0, select bank1
  4018     08C6  0825               	movf	eval_poly@n^(0+128),w
  4019     08C7  00A7               	movwf	??_eval_poly^(0+128)
  4020     08C8  3001               	movlw	1
  4021     08C9                     u5205:
  4022     08C9  1003               	clrc
  4023     08CA  0DA7               	rlf	??_eval_poly^(0+128),f
  4024     08CB  3EFF               	addlw	-1
  4025     08CC  1D03               	skipz
  4026     08CD  28C9               	goto	u5205
  4027     08CE  1003               	clrc
  4028     08CF  0D27               	rlf	??_eval_poly^(0+128),w
  4029     08D0  0724               	addwf	eval_poly@d^(0+128),w
  4030     08D1  0084               	movwf	4
  4031     08D2  160A  118A  200A  120A  158A  	fcall	stringdir
  4032     08D7  00A8               	movwf	(??_eval_poly+1)^(0+128)
  4033     08D8  160A  118A  200A  120A  158A  	fcall	stringdir
  4034     08DD  00A9               	movwf	((??_eval_poly+1)^(0+128)+1)
  4035     08DE  160A  118A  200A  120A  158A  	fcall	stringdir
  4036     08E3  00AA               	movwf	((??_eval_poly+1)^(0+128)+2)
  4037     08E4  160A  118A  200A  120A  158A  	fcall	stringdir
  4038     08E9  00AB               	movwf	((??_eval_poly+1)^(0+128)+3)
  4039     08EA  082B               	movf	(??_eval_poly+4)^(0+128),w
  4040     08EB  00AF               	movwf	(eval_poly@res+3)^(0+128)
  4041     08EC  082A               	movf	(??_eval_poly+3)^(0+128),w
  4042     08ED  00AE               	movwf	(eval_poly@res+2)^(0+128)
  4043     08EE  0829               	movf	(??_eval_poly+2)^(0+128),w
  4044     08EF  00AD               	movwf	(eval_poly@res+1)^(0+128)
  4045     08F0  0828               	movf	(??_eval_poly+1)^(0+128),w
  4046     08F1  00AC               	movwf	eval_poly@res^(0+128)
  4047     08F2  298F               	goto	l3494
  4048     08F3                     l3492:
  4049     08F3  30FF               	movlw	255
  4050     08F4  07A5               	addwf	eval_poly@n^(0+128),f
  4051     08F5  1803               	skipnc
  4052     08F6  0AA6               	incf	(eval_poly@n+1)^(0+128),f
  4053     08F7  30FF               	movlw	255
  4054     08F8  07A6               	addwf	(eval_poly@n+1)^(0+128),f
  4055     08F9  0825               	movf	eval_poly@n^(0+128),w
  4056     08FA  00A7               	movwf	??_eval_poly^(0+128)
  4057     08FB  3001               	movlw	1
  4058     08FC                     u5215:
  4059     08FC  1003               	clrc
  4060     08FD  0DA7               	rlf	??_eval_poly^(0+128),f
  4061     08FE  3EFF               	addlw	-1
  4062     08FF  1D03               	skipz
  4063     0900  28FC               	goto	u5215
  4064     0901  1003               	clrc
  4065     0902  0D27               	rlf	??_eval_poly^(0+128),w
  4066     0903  0724               	addwf	eval_poly@d^(0+128),w
  4067     0904  0084               	movwf	4
  4068     0905  160A  118A  200A  120A  158A  	fcall	stringdir
  4069     090A  00A8               	movwf	(??_eval_poly+1)^(0+128)
  4070     090B  160A  118A  200A  120A  158A  	fcall	stringdir
  4071     0910  00A9               	movwf	((??_eval_poly+1)^(0+128)+1)
  4072     0911  160A  118A  200A  120A  158A  	fcall	stringdir
  4073     0916  00AA               	movwf	((??_eval_poly+1)^(0+128)+2)
  4074     0917  160A  118A  200A  120A  158A  	fcall	stringdir
  4075     091C  00AB               	movwf	((??_eval_poly+1)^(0+128)+3)
  4076     091D  082B               	movf	(??_eval_poly+4)^(0+128),w
  4077     091E  1283               	bcf	3,5	;RP0=0, select bank0
  4078     091F  1303               	bcf	3,6	;RP1=0, select bank0
  4079     0920  00DC               	movwf	___fladd@b+3
  4080     0921  1683               	bsf	3,5	;RP0=1, select bank1
  4081     0922  1303               	bcf	3,6	;RP1=0, select bank1
  4082     0923  082A               	movf	(??_eval_poly+3)^(0+128),w
  4083     0924  1283               	bcf	3,5	;RP0=0, select bank0
  4084     0925  1303               	bcf	3,6	;RP1=0, select bank0
  4085     0926  00DB               	movwf	___fladd@b+2
  4086     0927  1683               	bsf	3,5	;RP0=1, select bank1
  4087     0928  1303               	bcf	3,6	;RP1=0, select bank1
  4088     0929  0829               	movf	(??_eval_poly+2)^(0+128),w
  4089     092A  1283               	bcf	3,5	;RP0=0, select bank0
  4090     092B  1303               	bcf	3,6	;RP1=0, select bank0
  4091     092C  00DA               	movwf	___fladd@b+1
  4092     092D  1683               	bsf	3,5	;RP0=1, select bank1
  4093     092E  1303               	bcf	3,6	;RP1=0, select bank1
  4094     092F  0828               	movf	(??_eval_poly+1)^(0+128),w
  4095     0930  1283               	bcf	3,5	;RP0=0, select bank0
  4096     0931  1303               	bcf	3,6	;RP1=0, select bank0
  4097     0932  00D9               	movwf	___fladd@b
  4098     0933  1683               	bsf	3,5	;RP0=1, select bank1
  4099     0934  1303               	bcf	3,6	;RP1=0, select bank1
  4100     0935  082F               	movf	(eval_poly@res+3)^(0+128),w
  4101     0936  1283               	bcf	3,5	;RP0=0, select bank0
  4102     0937  1303               	bcf	3,6	;RP1=0, select bank0
  4103     0938  00A8               	movwf	___flmul@b+3
  4104     0939  1683               	bsf	3,5	;RP0=1, select bank1
  4105     093A  1303               	bcf	3,6	;RP1=0, select bank1
  4106     093B  082E               	movf	(eval_poly@res+2)^(0+128),w
  4107     093C  1283               	bcf	3,5	;RP0=0, select bank0
  4108     093D  1303               	bcf	3,6	;RP1=0, select bank0
  4109     093E  00A7               	movwf	___flmul@b+2
  4110     093F  1683               	bsf	3,5	;RP0=1, select bank1
  4111     0940  1303               	bcf	3,6	;RP1=0, select bank1
  4112     0941  082D               	movf	(eval_poly@res+1)^(0+128),w
  4113     0942  1283               	bcf	3,5	;RP0=0, select bank0
  4114     0943  1303               	bcf	3,6	;RP1=0, select bank0
  4115     0944  00A6               	movwf	___flmul@b+1
  4116     0945  1683               	bsf	3,5	;RP0=1, select bank1
  4117     0946  1303               	bcf	3,6	;RP1=0, select bank1
  4118     0947  082C               	movf	eval_poly@res^(0+128),w
  4119     0948  1283               	bcf	3,5	;RP0=0, select bank0
  4120     0949  1303               	bcf	3,6	;RP1=0, select bank0
  4121     094A  00A5               	movwf	___flmul@b
  4122     094B  1683               	bsf	3,5	;RP0=1, select bank1
  4123     094C  1303               	bcf	3,6	;RP1=0, select bank1
  4124     094D  0823               	movf	(eval_poly@x+3)^(0+128),w
  4125     094E  1283               	bcf	3,5	;RP0=0, select bank0
  4126     094F  1303               	bcf	3,6	;RP1=0, select bank0
  4127     0950  00AC               	movwf	___flmul@a+3
  4128     0951  1683               	bsf	3,5	;RP0=1, select bank1
  4129     0952  1303               	bcf	3,6	;RP1=0, select bank1
  4130     0953  0822               	movf	(eval_poly@x+2)^(0+128),w
  4131     0954  1283               	bcf	3,5	;RP0=0, select bank0
  4132     0955  1303               	bcf	3,6	;RP1=0, select bank0
  4133     0956  00AB               	movwf	___flmul@a+2
  4134     0957  1683               	bsf	3,5	;RP0=1, select bank1
  4135     0958  1303               	bcf	3,6	;RP1=0, select bank1
  4136     0959  0821               	movf	(eval_poly@x+1)^(0+128),w
  4137     095A  1283               	bcf	3,5	;RP0=0, select bank0
  4138     095B  1303               	bcf	3,6	;RP1=0, select bank0
  4139     095C  00AA               	movwf	___flmul@a+1
  4140     095D  1683               	bsf	3,5	;RP0=1, select bank1
  4141     095E  1303               	bcf	3,6	;RP1=0, select bank1
  4142     095F  0820               	movf	eval_poly@x^(0+128),w
  4143     0960  1283               	bcf	3,5	;RP0=0, select bank0
  4144     0961  1303               	bcf	3,6	;RP1=0, select bank0
  4145     0962  00A9               	movwf	___flmul@a
  4146     0963  120A  118A  2024  120A  158A  	fcall	___flmul
  4147     0968  1283               	bcf	3,5	;RP0=0, select bank0
  4148     0969  1303               	bcf	3,6	;RP1=0, select bank0
  4149     096A  0828               	movf	?___flmul+3,w
  4150     096B  00E0               	movwf	___fladd@a+3
  4151     096C  0827               	movf	?___flmul+2,w
  4152     096D  00DF               	movwf	___fladd@a+2
  4153     096E  0826               	movf	?___flmul+1,w
  4154     096F  00DE               	movwf	___fladd@a+1
  4155     0970  0825               	movf	?___flmul,w
  4156     0971  00DD               	movwf	___fladd@a
  4157     0972  120A  158A  25A8  120A  158A  	fcall	___fladd
  4158     0977  1283               	bcf	3,5	;RP0=0, select bank0
  4159     0978  1303               	bcf	3,6	;RP1=0, select bank0
  4160     0979  085C               	movf	?___fladd+3,w
  4161     097A  1683               	bsf	3,5	;RP0=1, select bank1
  4162     097B  1303               	bcf	3,6	;RP1=0, select bank1
  4163     097C  00AF               	movwf	(eval_poly@res+3)^(0+128)
  4164     097D  1283               	bcf	3,5	;RP0=0, select bank0
  4165     097E  1303               	bcf	3,6	;RP1=0, select bank0
  4166     097F  085B               	movf	?___fladd+2,w
  4167     0980  1683               	bsf	3,5	;RP0=1, select bank1
  4168     0981  1303               	bcf	3,6	;RP1=0, select bank1
  4169     0982  00AE               	movwf	(eval_poly@res+2)^(0+128)
  4170     0983  1283               	bcf	3,5	;RP0=0, select bank0
  4171     0984  1303               	bcf	3,6	;RP1=0, select bank0
  4172     0985  085A               	movf	?___fladd+1,w
  4173     0986  1683               	bsf	3,5	;RP0=1, select bank1
  4174     0987  1303               	bcf	3,6	;RP1=0, select bank1
  4175     0988  00AD               	movwf	(eval_poly@res+1)^(0+128)
  4176     0989  1283               	bcf	3,5	;RP0=0, select bank0
  4177     098A  1303               	bcf	3,6	;RP1=0, select bank0
  4178     098B  0859               	movf	?___fladd,w
  4179     098C  1683               	bsf	3,5	;RP0=1, select bank1
  4180     098D  1303               	bcf	3,6	;RP1=0, select bank1
  4181     098E  00AC               	movwf	eval_poly@res^(0+128)
  4182     098F                     l3494:
  4183     098F  0825               	movf	eval_poly@n^(0+128),w
  4184     0990  0426               	iorwf	(eval_poly@n+1)^(0+128),w
  4185     0991  1D03               	btfss	3,2
  4186     0992  2994               	goto	u5221
  4187     0993  2995               	goto	u5220
  4188     0994                     u5221:
  4189     0994  28F3               	goto	l3492
  4190     0995                     u5220:
  4191     0995                     l3496:
  4192     0995  082F               	movf	(eval_poly@res+3)^(0+128),w
  4193     0996  00A3               	movwf	(?_eval_poly+3)^(0+128)
  4194     0997  082E               	movf	(eval_poly@res+2)^(0+128),w
  4195     0998  00A2               	movwf	(?_eval_poly+2)^(0+128)
  4196     0999  082D               	movf	(eval_poly@res+1)^(0+128),w
  4197     099A  00A1               	movwf	(?_eval_poly+1)^(0+128)
  4198     099B  082C               	movf	eval_poly@res^(0+128),w
  4199     099C  00A0               	movwf	?_eval_poly^(0+128)
  4200     099D                     l753:
  4201     099D  0008               	return
  4202     099E                     __end_of_eval_poly:
  4203                           
  4204                           	psect	text10
  4205     0024                     __ptext10:	
  4206 ;; *************** function ___flmul *****************
  4207 ;; Defined at:
  4208 ;;		line 8 in file "C:\Program Files\Microchip\xc8\v2.40\pic\sources\c90\common\sprcmul.c"
  4209 ;; Parameters:    Size  Location     Type
  4210 ;;  b               4    5[BANK0 ] int 
  4211 ;;  a               4    9[BANK0 ] int 
  4212 ;; Auto vars:     Size  Location     Type
  4213 ;;  prod            4   25[BANK0 ] struct .
  4214 ;;  grs             4   20[BANK0 ] unsigned long 
  4215 ;;  temp            2   29[BANK0 ] struct .
  4216 ;;  bexp            1   24[BANK0 ] unsigned char 
  4217 ;;  aexp            1   19[BANK0 ] unsigned char 
  4218 ;;  sign            1   18[BANK0 ] unsigned char 
  4219 ;; Return value:  Size  Location     Type
  4220 ;;                  4    5[BANK0 ] unsigned char 
  4221 ;; Registers used:
  4222 ;;		wreg, status,2, status,0, btemp+1, pclath, cstack
  4223 ;; Tracked objects:
  4224 ;;		On entry : 0/0
  4225 ;;		On exit  : 0/0
  4226 ;;		Unchanged: 0/0
  4227 ;; Data sizes:     COMMON   BANK0   BANK1   BANK3   BANK2
  4228 ;;      Params:         0       8       0       0       0
  4229 ;;      Locals:         0      13       0       0       0
  4230 ;;      Temps:          0       5       0       0       0
  4231 ;;      Totals:         0      26       0       0       0
  4232 ;;Total ram usage:       26 bytes
  4233 ;; Hardware stack levels used: 1
  4234 ;; Hardware stack levels required when called: 1
  4235 ;; This function calls:
  4236 ;;		__Umul8_16
  4237 ;; This function is called by:
  4238 ;;		_log
  4239 ;;		_eval_poly
  4240 ;; This function uses a non-reentrant model
  4241 ;;
  4242                           
  4243     0024                     ___flmul:	
  4244                           ;psect for function ___flmul
  4245                           
  4246     0024                     l3266:	
  4247                           ;incstack = 0
  4248                           ; Regs used in ___flmul: [wreg+status,2+status,0+btemp+1+pclath+cstack]
  4249                           
  4250     0024  1283               	bcf	3,5	;RP0=0, select bank0
  4251     0025  1303               	bcf	3,6	;RP1=0, select bank0
  4252     0026  0828               	movf	___flmul@b+3,w
  4253     0027  3980               	andlw	128
  4254     0028  00B2               	movwf	___flmul@sign
  4255     0029                     l3268:
  4256     0029  0828               	movf	___flmul@b+3,w
  4257     002A  00AD               	movwf	??___flmul
  4258     002B  072D               	addwf	??___flmul,w
  4259     002C  00B8               	movwf	___flmul@bexp
  4260     002D                     l3270:
  4261     002D  1FA7               	btfss	___flmul@b+2,7
  4262     002E  2830               	goto	u4611
  4263     002F  2831               	goto	u4610
  4264     0030                     u4611:
  4265     0030  2832               	goto	l3274
  4266     0031                     u4610:
  4267     0031                     l3272:
  4268     0031  1438               	bsf	___flmul@bexp,0
  4269     0032                     l3274:
  4270     0032  0838               	movf	___flmul@bexp,w
  4271     0033  1903               	btfsc	3,2
  4272     0034  2836               	goto	u4621
  4273     0035  2837               	goto	u4620
  4274     0036                     u4621:
  4275     0036  2846               	goto	l3282
  4276     0037                     u4620:
  4277     0037                     l3276:
  4278     0037  0A38               	incf	___flmul@bexp,w
  4279     0038  1D03               	btfss	3,2
  4280     0039  283B               	goto	u4631
  4281     003A  283C               	goto	u4630
  4282     003B                     u4631:
  4283     003B  2844               	goto	l3280
  4284     003C                     u4630:
  4285     003C                     l3278:
  4286     003C  3000               	movlw	0
  4287     003D  00A8               	movwf	___flmul@b+3
  4288     003E  3000               	movlw	0
  4289     003F  00A7               	movwf	___flmul@b+2
  4290     0040  3000               	movlw	0
  4291     0041  00A6               	movwf	___flmul@b+1
  4292     0042  3000               	movlw	0
  4293     0043  00A5               	movwf	___flmul@b
  4294     0044                     l3280:
  4295     0044  17A7               	bsf	___flmul@b+2,7
  4296     0045  284E               	goto	l3284
  4297     0046                     l3282:
  4298     0046  3000               	movlw	0
  4299     0047  00A8               	movwf	___flmul@b+3
  4300     0048  3000               	movlw	0
  4301     0049  00A7               	movwf	___flmul@b+2
  4302     004A  3000               	movlw	0
  4303     004B  00A6               	movwf	___flmul@b+1
  4304     004C  3000               	movlw	0
  4305     004D  00A5               	movwf	___flmul@b
  4306     004E                     l3284:
  4307     004E  082C               	movf	___flmul@a+3,w
  4308     004F  3980               	andlw	128
  4309     0050  00AD               	movwf	??___flmul
  4310     0051  082D               	movf	??___flmul,w
  4311     0052  06B2               	xorwf	___flmul@sign,f
  4312     0053                     l3286:
  4313     0053  082C               	movf	___flmul@a+3,w
  4314     0054  00AD               	movwf	??___flmul
  4315     0055  072D               	addwf	??___flmul,w
  4316     0056  00B3               	movwf	___flmul@aexp
  4317     0057                     l3288:
  4318     0057  1FAB               	btfss	___flmul@a+2,7
  4319     0058  285A               	goto	u4641
  4320     0059  285B               	goto	u4640
  4321     005A                     u4641:
  4322     005A  285C               	goto	l3292
  4323     005B                     u4640:
  4324     005B                     l3290:
  4325     005B  1433               	bsf	___flmul@aexp,0
  4326     005C                     l3292:
  4327     005C  0833               	movf	___flmul@aexp,w
  4328     005D  1903               	btfsc	3,2
  4329     005E  2860               	goto	u4651
  4330     005F  2861               	goto	u4650
  4331     0060                     u4651:
  4332     0060  2870               	goto	l3300
  4333     0061                     u4650:
  4334     0061                     l3294:
  4335     0061  0A33               	incf	___flmul@aexp,w
  4336     0062  1D03               	btfss	3,2
  4337     0063  2865               	goto	u4661
  4338     0064  2866               	goto	u4660
  4339     0065                     u4661:
  4340     0065  286E               	goto	l3298
  4341     0066                     u4660:
  4342     0066                     l3296:
  4343     0066  3000               	movlw	0
  4344     0067  00AC               	movwf	___flmul@a+3
  4345     0068  3000               	movlw	0
  4346     0069  00AB               	movwf	___flmul@a+2
  4347     006A  3000               	movlw	0
  4348     006B  00AA               	movwf	___flmul@a+1
  4349     006C  3000               	movlw	0
  4350     006D  00A9               	movwf	___flmul@a
  4351     006E                     l3298:
  4352     006E  17AB               	bsf	___flmul@a+2,7
  4353     006F  2878               	goto	l3302
  4354     0070                     l3300:
  4355     0070  3000               	movlw	0
  4356     0071  00AC               	movwf	___flmul@a+3
  4357     0072  3000               	movlw	0
  4358     0073  00AB               	movwf	___flmul@a+2
  4359     0074  3000               	movlw	0
  4360     0075  00AA               	movwf	___flmul@a+1
  4361     0076  3000               	movlw	0
  4362     0077  00A9               	movwf	___flmul@a
  4363     0078                     l3302:
  4364     0078  0833               	movf	___flmul@aexp,w
  4365     0079  1903               	btfsc	3,2
  4366     007A  287C               	goto	u4671
  4367     007B  287D               	goto	u4670
  4368     007C                     u4671:
  4369     007C  2882               	goto	l3306
  4370     007D                     u4670:
  4371     007D                     l3304:
  4372     007D  0838               	movf	___flmul@bexp,w
  4373     007E  1D03               	btfss	3,2
  4374     007F  2881               	goto	u4681
  4375     0080  2882               	goto	u4680
  4376     0081                     u4681:
  4377     0081  288B               	goto	l3310
  4378     0082                     u4680:
  4379     0082                     l3306:
  4380     0082  3000               	movlw	0
  4381     0083  00A8               	movwf	?___flmul+3
  4382     0084  3000               	movlw	0
  4383     0085  00A7               	movwf	?___flmul+2
  4384     0086  3000               	movlw	0
  4385     0087  00A6               	movwf	?___flmul+1
  4386     0088  3000               	movlw	0
  4387     0089  00A5               	movwf	?___flmul
  4388     008A  2B68               	goto	l670
  4389     008B                     l3310:
  4390     008B  0825               	movf	___flmul@b,w
  4391     008C  00F0               	movwf	__Umul8_16@multiplicand
  4392     008D  082B               	movf	___flmul@a+2,w
  4393     008E  160A  118A  2388  120A  118A  	fcall	__Umul8_16
  4394     0093  0871               	movf	?__Umul8_16+1,w
  4395     0094  1283               	bcf	3,5	;RP0=0, select bank0
  4396     0095  1303               	bcf	3,6	;RP1=0, select bank0
  4397     0096  00BE               	movwf	___flmul@temp+1
  4398     0097  0870               	movf	?__Umul8_16,w
  4399     0098  00BD               	movwf	___flmul@temp
  4400     0099                     l3312:
  4401     0099  083D               	movf	___flmul@temp,w
  4402     009A  00AD               	movwf	??___flmul
  4403     009B  01AE               	clrf	??___flmul+1
  4404     009C  01AF               	clrf	??___flmul+2
  4405     009D  01B0               	clrf	??___flmul+3
  4406     009E  0830               	movf	??___flmul+3,w
  4407     009F  00B7               	movwf	___flmul@grs+3
  4408     00A0  082F               	movf	??___flmul+2,w
  4409     00A1  00B6               	movwf	___flmul@grs+2
  4410     00A2  082E               	movf	??___flmul+1,w
  4411     00A3  00B5               	movwf	___flmul@grs+1
  4412     00A4  082D               	movf	??___flmul,w
  4413     00A5  00B4               	movwf	___flmul@grs
  4414     00A6                     l3314:
  4415     00A6  083E               	movf	___flmul@temp+1,w
  4416     00A7  00AD               	movwf	??___flmul
  4417     00A8  01AE               	clrf	??___flmul+1
  4418     00A9  01AF               	clrf	??___flmul+2
  4419     00AA  01B0               	clrf	??___flmul+3
  4420     00AB  0830               	movf	??___flmul+3,w
  4421     00AC  00BC               	movwf	___flmul@prod+3
  4422     00AD  082F               	movf	??___flmul+2,w
  4423     00AE  00BB               	movwf	___flmul@prod+2
  4424     00AF  082E               	movf	??___flmul+1,w
  4425     00B0  00BA               	movwf	___flmul@prod+1
  4426     00B1  082D               	movf	??___flmul,w
  4427     00B2  00B9               	movwf	___flmul@prod
  4428     00B3  0826               	movf	___flmul@b+1,w
  4429     00B4  00F0               	movwf	__Umul8_16@multiplicand
  4430     00B5  082A               	movf	___flmul@a+1,w
  4431     00B6  160A  118A  2388  120A  118A  	fcall	__Umul8_16
  4432     00BB  0871               	movf	?__Umul8_16+1,w
  4433     00BC  1283               	bcf	3,5	;RP0=0, select bank0
  4434     00BD  1303               	bcf	3,6	;RP1=0, select bank0
  4435     00BE  00BE               	movwf	___flmul@temp+1
  4436     00BF  0870               	movf	?__Umul8_16,w
  4437     00C0  00BD               	movwf	___flmul@temp
  4438     00C1                     l3316:
  4439     00C1  083D               	movf	___flmul@temp,w
  4440     00C2  00AD               	movwf	??___flmul
  4441     00C3  01AE               	clrf	??___flmul+1
  4442     00C4  01AF               	clrf	??___flmul+2
  4443     00C5  01B0               	clrf	??___flmul+3
  4444     00C6  082D               	movf	??___flmul,w
  4445     00C7  07B4               	addwf	___flmul@grs,f
  4446     00C8  082E               	movf	??___flmul+1,w
  4447     00C9  1103               	clrz
  4448     00CA  1803               	skipnc
  4449     00CB  3E01               	addlw	1
  4450     00CC  1903               	skipnz
  4451     00CD  28CF               	goto	u4691
  4452     00CE  07B5               	addwf	___flmul@grs+1,f
  4453     00CF                     u4691:
  4454     00CF  082F               	movf	??___flmul+2,w
  4455     00D0  1103               	clrz
  4456     00D1  1803               	skipnc
  4457     00D2  3E01               	addlw	1
  4458     00D3  1903               	skipnz
  4459     00D4  28D6               	goto	u4692
  4460     00D5  07B6               	addwf	___flmul@grs+2,f
  4461     00D6                     u4692:
  4462     00D6  0830               	movf	??___flmul+3,w
  4463     00D7  1103               	clrz
  4464     00D8  1803               	skipnc
  4465     00D9  3E01               	addlw	1
  4466     00DA  1903               	skipnz
  4467     00DB  28DD               	goto	u4693
  4468     00DC  07B7               	addwf	___flmul@grs+3,f
  4469     00DD                     u4693:
  4470     00DD                     l3318:
  4471     00DD  083E               	movf	___flmul@temp+1,w
  4472     00DE  00AD               	movwf	??___flmul
  4473     00DF  01AE               	clrf	??___flmul+1
  4474     00E0  01AF               	clrf	??___flmul+2
  4475     00E1  01B0               	clrf	??___flmul+3
  4476     00E2  082D               	movf	??___flmul,w
  4477     00E3  07B9               	addwf	___flmul@prod,f
  4478     00E4  082E               	movf	??___flmul+1,w
  4479     00E5  1103               	clrz
  4480     00E6  1803               	skipnc
  4481     00E7  3E01               	addlw	1
  4482     00E8  1903               	skipnz
  4483     00E9  28EB               	goto	u4701
  4484     00EA  07BA               	addwf	___flmul@prod+1,f
  4485     00EB                     u4701:
  4486     00EB  082F               	movf	??___flmul+2,w
  4487     00EC  1103               	clrz
  4488     00ED  1803               	skipnc
  4489     00EE  3E01               	addlw	1
  4490     00EF  1903               	skipnz
  4491     00F0  28F2               	goto	u4702
  4492     00F1  07BB               	addwf	___flmul@prod+2,f
  4493     00F2                     u4702:
  4494     00F2  0830               	movf	??___flmul+3,w
  4495     00F3  1103               	clrz
  4496     00F4  1803               	skipnc
  4497     00F5  3E01               	addlw	1
  4498     00F6  1903               	skipnz
  4499     00F7  28F9               	goto	u4703
  4500     00F8  07BC               	addwf	___flmul@prod+3,f
  4501     00F9                     u4703:
  4502     00F9  0827               	movf	___flmul@b+2,w
  4503     00FA  00F0               	movwf	__Umul8_16@multiplicand
  4504     00FB  0829               	movf	___flmul@a,w
  4505     00FC  160A  118A  2388  120A  118A  	fcall	__Umul8_16
  4506     0101  0871               	movf	?__Umul8_16+1,w
  4507     0102  1283               	bcf	3,5	;RP0=0, select bank0
  4508     0103  1303               	bcf	3,6	;RP1=0, select bank0
  4509     0104  00BE               	movwf	___flmul@temp+1
  4510     0105  0870               	movf	?__Umul8_16,w
  4511     0106  00BD               	movwf	___flmul@temp
  4512     0107                     l3320:
  4513     0107  083D               	movf	___flmul@temp,w
  4514     0108  00AD               	movwf	??___flmul
  4515     0109  01AE               	clrf	??___flmul+1
  4516     010A  01AF               	clrf	??___flmul+2
  4517     010B  01B0               	clrf	??___flmul+3
  4518     010C  082D               	movf	??___flmul,w
  4519     010D  07B4               	addwf	___flmul@grs,f
  4520     010E  082E               	movf	??___flmul+1,w
  4521     010F  1103               	clrz
  4522     0110  1803               	skipnc
  4523     0111  3E01               	addlw	1
  4524     0112  1903               	skipnz
  4525     0113  2915               	goto	u4711
  4526     0114  07B5               	addwf	___flmul@grs+1,f
  4527     0115                     u4711:
  4528     0115  082F               	movf	??___flmul+2,w
  4529     0116  1103               	clrz
  4530     0117  1803               	skipnc
  4531     0118  3E01               	addlw	1
  4532     0119  1903               	skipnz
  4533     011A  291C               	goto	u4712
  4534     011B  07B6               	addwf	___flmul@grs+2,f
  4535     011C                     u4712:
  4536     011C  0830               	movf	??___flmul+3,w
  4537     011D  1103               	clrz
  4538     011E  1803               	skipnc
  4539     011F  3E01               	addlw	1
  4540     0120  1903               	skipnz
  4541     0121  2923               	goto	u4713
  4542     0122  07B7               	addwf	___flmul@grs+3,f
  4543     0123                     u4713:
  4544     0123                     l3322:
  4545     0123  083E               	movf	___flmul@temp+1,w
  4546     0124  00AD               	movwf	??___flmul
  4547     0125  01AE               	clrf	??___flmul+1
  4548     0126  01AF               	clrf	??___flmul+2
  4549     0127  01B0               	clrf	??___flmul+3
  4550     0128  082D               	movf	??___flmul,w
  4551     0129  07B9               	addwf	___flmul@prod,f
  4552     012A  082E               	movf	??___flmul+1,w
  4553     012B  1103               	clrz
  4554     012C  1803               	skipnc
  4555     012D  3E01               	addlw	1
  4556     012E  1903               	skipnz
  4557     012F  2931               	goto	u4721
  4558     0130  07BA               	addwf	___flmul@prod+1,f
  4559     0131                     u4721:
  4560     0131  082F               	movf	??___flmul+2,w
  4561     0132  1103               	clrz
  4562     0133  1803               	skipnc
  4563     0134  3E01               	addlw	1
  4564     0135  1903               	skipnz
  4565     0136  2938               	goto	u4722
  4566     0137  07BB               	addwf	___flmul@prod+2,f
  4567     0138                     u4722:
  4568     0138  0830               	movf	??___flmul+3,w
  4569     0139  1103               	clrz
  4570     013A  1803               	skipnc
  4571     013B  3E01               	addlw	1
  4572     013C  1903               	skipnz
  4573     013D  293F               	goto	u4723
  4574     013E  07BC               	addwf	___flmul@prod+3,f
  4575     013F                     u4723:
  4576     013F                     l3324:
  4577     013F  3008               	movlw	8
  4578     0140  00AD               	movwf	??___flmul
  4579     0141                     u4735:
  4580     0141  1003               	clrc
  4581     0142  0DB4               	rlf	___flmul@grs,f
  4582     0143  0DB5               	rlf	___flmul@grs+1,f
  4583     0144  0DB6               	rlf	___flmul@grs+2,f
  4584     0145  0DB7               	rlf	___flmul@grs+3,f
  4585     0146  0BAD               	decfsz	??___flmul,f
  4586     0147  2941               	goto	u4735
  4587     0148                     l3326:
  4588     0148  0826               	movf	___flmul@b+1,w
  4589     0149  00F0               	movwf	__Umul8_16@multiplicand
  4590     014A  0829               	movf	___flmul@a,w
  4591     014B  160A  118A  2388  120A  118A  	fcall	__Umul8_16
  4592     0150  0871               	movf	?__Umul8_16+1,w
  4593     0151  1283               	bcf	3,5	;RP0=0, select bank0
  4594     0152  1303               	bcf	3,6	;RP1=0, select bank0
  4595     0153  00BE               	movwf	___flmul@temp+1
  4596     0154  0870               	movf	?__Umul8_16,w
  4597     0155  00BD               	movwf	___flmul@temp
  4598     0156                     l3328:
  4599     0156  083D               	movf	___flmul@temp,w
  4600     0157  00AD               	movwf	??___flmul
  4601     0158  083E               	movf	___flmul@temp+1,w
  4602     0159  00AE               	movwf	??___flmul+1
  4603     015A  01AF               	clrf	??___flmul+2
  4604     015B  01B0               	clrf	??___flmul+3
  4605     015C  082D               	movf	??___flmul,w
  4606     015D  07B4               	addwf	___flmul@grs,f
  4607     015E  082E               	movf	??___flmul+1,w
  4608     015F  1103               	clrz
  4609     0160  1803               	skipnc
  4610     0161  3E01               	addlw	1
  4611     0162  1903               	skipnz
  4612     0163  2965               	goto	u4741
  4613     0164  07B5               	addwf	___flmul@grs+1,f
  4614     0165                     u4741:
  4615     0165  082F               	movf	??___flmul+2,w
  4616     0166  1103               	clrz
  4617     0167  1803               	skipnc
  4618     0168  3E01               	addlw	1
  4619     0169  1903               	skipnz
  4620     016A  296C               	goto	u4742
  4621     016B  07B6               	addwf	___flmul@grs+2,f
  4622     016C                     u4742:
  4623     016C  0830               	movf	??___flmul+3,w
  4624     016D  1103               	clrz
  4625     016E  1803               	skipnc
  4626     016F  3E01               	addlw	1
  4627     0170  1903               	skipnz
  4628     0171  2973               	goto	u4743
  4629     0172  07B7               	addwf	___flmul@grs+3,f
  4630     0173                     u4743:
  4631     0173                     l3330:
  4632     0173  0825               	movf	___flmul@b,w
  4633     0174  00F0               	movwf	__Umul8_16@multiplicand
  4634     0175  082A               	movf	___flmul@a+1,w
  4635     0176  160A  118A  2388  120A  118A  	fcall	__Umul8_16
  4636     017B  0871               	movf	?__Umul8_16+1,w
  4637     017C  1283               	bcf	3,5	;RP0=0, select bank0
  4638     017D  1303               	bcf	3,6	;RP1=0, select bank0
  4639     017E  00BE               	movwf	___flmul@temp+1
  4640     017F  0870               	movf	?__Umul8_16,w
  4641     0180  00BD               	movwf	___flmul@temp
  4642     0181                     l3332:
  4643     0181  083D               	movf	___flmul@temp,w
  4644     0182  00AD               	movwf	??___flmul
  4645     0183  083E               	movf	___flmul@temp+1,w
  4646     0184  00AE               	movwf	??___flmul+1
  4647     0185  01AF               	clrf	??___flmul+2
  4648     0186  01B0               	clrf	??___flmul+3
  4649     0187  082D               	movf	??___flmul,w
  4650     0188  07B4               	addwf	___flmul@grs,f
  4651     0189  082E               	movf	??___flmul+1,w
  4652     018A  1103               	clrz
  4653     018B  1803               	skipnc
  4654     018C  3E01               	addlw	1
  4655     018D  1903               	skipnz
  4656     018E  2990               	goto	u4751
  4657     018F  07B5               	addwf	___flmul@grs+1,f
  4658     0190                     u4751:
  4659     0190  082F               	movf	??___flmul+2,w
  4660     0191  1103               	clrz
  4661     0192  1803               	skipnc
  4662     0193  3E01               	addlw	1
  4663     0194  1903               	skipnz
  4664     0195  2997               	goto	u4752
  4665     0196  07B6               	addwf	___flmul@grs+2,f
  4666     0197                     u4752:
  4667     0197  0830               	movf	??___flmul+3,w
  4668     0198  1103               	clrz
  4669     0199  1803               	skipnc
  4670     019A  3E01               	addlw	1
  4671     019B  1903               	skipnz
  4672     019C  299E               	goto	u4753
  4673     019D  07B7               	addwf	___flmul@grs+3,f
  4674     019E                     u4753:
  4675     019E                     l3334:
  4676     019E  3008               	movlw	8
  4677     019F  00AD               	movwf	??___flmul
  4678     01A0                     u4765:
  4679     01A0  1003               	clrc
  4680     01A1  0DB4               	rlf	___flmul@grs,f
  4681     01A2  0DB5               	rlf	___flmul@grs+1,f
  4682     01A3  0DB6               	rlf	___flmul@grs+2,f
  4683     01A4  0DB7               	rlf	___flmul@grs+3,f
  4684     01A5  0BAD               	decfsz	??___flmul,f
  4685     01A6  29A0               	goto	u4765
  4686     01A7  0825               	movf	___flmul@b,w
  4687     01A8  00F0               	movwf	__Umul8_16@multiplicand
  4688     01A9  0829               	movf	___flmul@a,w
  4689     01AA  160A  118A  2388  120A  118A  	fcall	__Umul8_16
  4690     01AF  0871               	movf	?__Umul8_16+1,w
  4691     01B0  1283               	bcf	3,5	;RP0=0, select bank0
  4692     01B1  1303               	bcf	3,6	;RP1=0, select bank0
  4693     01B2  00BE               	movwf	___flmul@temp+1
  4694     01B3  0870               	movf	?__Umul8_16,w
  4695     01B4  00BD               	movwf	___flmul@temp
  4696     01B5                     l3336:
  4697     01B5  083D               	movf	___flmul@temp,w
  4698     01B6  00AD               	movwf	??___flmul
  4699     01B7  083E               	movf	___flmul@temp+1,w
  4700     01B8  00AE               	movwf	??___flmul+1
  4701     01B9  01AF               	clrf	??___flmul+2
  4702     01BA  01B0               	clrf	??___flmul+3
  4703     01BB  082D               	movf	??___flmul,w
  4704     01BC  07B4               	addwf	___flmul@grs,f
  4705     01BD  082E               	movf	??___flmul+1,w
  4706     01BE  1103               	clrz
  4707     01BF  1803               	skipnc
  4708     01C0  3E01               	addlw	1
  4709     01C1  1903               	skipnz
  4710     01C2  29C4               	goto	u4771
  4711     01C3  07B5               	addwf	___flmul@grs+1,f
  4712     01C4                     u4771:
  4713     01C4  082F               	movf	??___flmul+2,w
  4714     01C5  1103               	clrz
  4715     01C6  1803               	skipnc
  4716     01C7  3E01               	addlw	1
  4717     01C8  1903               	skipnz
  4718     01C9  29CB               	goto	u4772
  4719     01CA  07B6               	addwf	___flmul@grs+2,f
  4720     01CB                     u4772:
  4721     01CB  0830               	movf	??___flmul+3,w
  4722     01CC  1103               	clrz
  4723     01CD  1803               	skipnc
  4724     01CE  3E01               	addlw	1
  4725     01CF  1903               	skipnz
  4726     01D0  29D2               	goto	u4773
  4727     01D1  07B7               	addwf	___flmul@grs+3,f
  4728     01D2                     u4773:
  4729     01D2                     l3338:
  4730     01D2  0826               	movf	___flmul@b+1,w
  4731     01D3  00F0               	movwf	__Umul8_16@multiplicand
  4732     01D4  082B               	movf	___flmul@a+2,w
  4733     01D5  160A  118A  2388  120A  118A  	fcall	__Umul8_16
  4734     01DA  0871               	movf	?__Umul8_16+1,w
  4735     01DB  1283               	bcf	3,5	;RP0=0, select bank0
  4736     01DC  1303               	bcf	3,6	;RP1=0, select bank0
  4737     01DD  00BE               	movwf	___flmul@temp+1
  4738     01DE  0870               	movf	?__Umul8_16,w
  4739     01DF  00BD               	movwf	___flmul@temp
  4740     01E0  083D               	movf	___flmul@temp,w
  4741     01E1  00AD               	movwf	??___flmul
  4742     01E2  083E               	movf	___flmul@temp+1,w
  4743     01E3  00AE               	movwf	??___flmul+1
  4744     01E4  01AF               	clrf	??___flmul+2
  4745     01E5  01B0               	clrf	??___flmul+3
  4746     01E6  082D               	movf	??___flmul,w
  4747     01E7  07B9               	addwf	___flmul@prod,f
  4748     01E8  082E               	movf	??___flmul+1,w
  4749     01E9  1103               	clrz
  4750     01EA  1803               	skipnc
  4751     01EB  3E01               	addlw	1
  4752     01EC  1903               	skipnz
  4753     01ED  29EF               	goto	u4781
  4754     01EE  07BA               	addwf	___flmul@prod+1,f
  4755     01EF                     u4781:
  4756     01EF  082F               	movf	??___flmul+2,w
  4757     01F0  1103               	clrz
  4758     01F1  1803               	skipnc
  4759     01F2  3E01               	addlw	1
  4760     01F3  1903               	skipnz
  4761     01F4  29F6               	goto	u4782
  4762     01F5  07BB               	addwf	___flmul@prod+2,f
  4763     01F6                     u4782:
  4764     01F6  0830               	movf	??___flmul+3,w
  4765     01F7  1103               	clrz
  4766     01F8  1803               	skipnc
  4767     01F9  3E01               	addlw	1
  4768     01FA  1903               	skipnz
  4769     01FB  29FD               	goto	u4783
  4770     01FC  07BC               	addwf	___flmul@prod+3,f
  4771     01FD                     u4783:
  4772     01FD                     l3340:
  4773     01FD  0827               	movf	___flmul@b+2,w
  4774     01FE  00F0               	movwf	__Umul8_16@multiplicand
  4775     01FF  082A               	movf	___flmul@a+1,w
  4776     0200  160A  118A  2388  120A  118A  	fcall	__Umul8_16
  4777     0205  0871               	movf	?__Umul8_16+1,w
  4778     0206  1283               	bcf	3,5	;RP0=0, select bank0
  4779     0207  1303               	bcf	3,6	;RP1=0, select bank0
  4780     0208  00BE               	movwf	___flmul@temp+1
  4781     0209  0870               	movf	?__Umul8_16,w
  4782     020A  00BD               	movwf	___flmul@temp
  4783     020B                     l3342:
  4784     020B  083D               	movf	___flmul@temp,w
  4785     020C  00AD               	movwf	??___flmul
  4786     020D  083E               	movf	___flmul@temp+1,w
  4787     020E  00AE               	movwf	??___flmul+1
  4788     020F  01AF               	clrf	??___flmul+2
  4789     0210  01B0               	clrf	??___flmul+3
  4790     0211  082D               	movf	??___flmul,w
  4791     0212  07B9               	addwf	___flmul@prod,f
  4792     0213  082E               	movf	??___flmul+1,w
  4793     0214  1103               	clrz
  4794     0215  1803               	skipnc
  4795     0216  3E01               	addlw	1
  4796     0217  1903               	skipnz
  4797     0218  2A1A               	goto	u4791
  4798     0219  07BA               	addwf	___flmul@prod+1,f
  4799     021A                     u4791:
  4800     021A  082F               	movf	??___flmul+2,w
  4801     021B  1103               	clrz
  4802     021C  1803               	skipnc
  4803     021D  3E01               	addlw	1
  4804     021E  1903               	skipnz
  4805     021F  2A21               	goto	u4792
  4806     0220  07BB               	addwf	___flmul@prod+2,f
  4807     0221                     u4792:
  4808     0221  0830               	movf	??___flmul+3,w
  4809     0222  1103               	clrz
  4810     0223  1803               	skipnc
  4811     0224  3E01               	addlw	1
  4812     0225  1903               	skipnz
  4813     0226  2A28               	goto	u4793
  4814     0227  07BC               	addwf	___flmul@prod+3,f
  4815     0228                     u4793:
  4816     0228  0827               	movf	___flmul@b+2,w
  4817     0229  00F0               	movwf	__Umul8_16@multiplicand
  4818     022A  082B               	movf	___flmul@a+2,w
  4819     022B  160A  118A  2388  120A  118A  	fcall	__Umul8_16
  4820     0230  0871               	movf	?__Umul8_16+1,w
  4821     0231  1283               	bcf	3,5	;RP0=0, select bank0
  4822     0232  1303               	bcf	3,6	;RP1=0, select bank0
  4823     0233  00BE               	movwf	___flmul@temp+1
  4824     0234  0870               	movf	?__Umul8_16,w
  4825     0235  00BD               	movwf	___flmul@temp
  4826     0236                     l3344:
  4827     0236  083D               	movf	___flmul@temp,w
  4828     0237  00AD               	movwf	??___flmul
  4829     0238  083E               	movf	___flmul@temp+1,w
  4830     0239  00AE               	movwf	??___flmul+1
  4831     023A  01AF               	clrf	??___flmul+2
  4832     023B  01B0               	clrf	??___flmul+3
  4833     023C  3008               	movlw	8
  4834     023D                     u4805:
  4835     023D  1003               	clrc
  4836     023E  0DAD               	rlf	??___flmul,f
  4837     023F  0DAE               	rlf	??___flmul+1,f
  4838     0240  0DAF               	rlf	??___flmul+2,f
  4839     0241  0DB0               	rlf	??___flmul+3,f
  4840     0242                     u4800:
  4841     0242  3EFF               	addlw	-1
  4842     0243  1D03               	skipz
  4843     0244  2A3D               	goto	u4805
  4844     0245  082D               	movf	??___flmul,w
  4845     0246  07B9               	addwf	___flmul@prod,f
  4846     0247  082E               	movf	??___flmul+1,w
  4847     0248  1103               	clrz
  4848     0249  1803               	skipnc
  4849     024A  3E01               	addlw	1
  4850     024B  1903               	skipnz
  4851     024C  2A4E               	goto	u4811
  4852     024D  07BA               	addwf	___flmul@prod+1,f
  4853     024E                     u4811:
  4854     024E  082F               	movf	??___flmul+2,w
  4855     024F  1103               	clrz
  4856     0250  1803               	skipnc
  4857     0251  3E01               	addlw	1
  4858     0252  1903               	skipnz
  4859     0253  2A55               	goto	u4812
  4860     0254  07BB               	addwf	___flmul@prod+2,f
  4861     0255                     u4812:
  4862     0255  0830               	movf	??___flmul+3,w
  4863     0256  1103               	clrz
  4864     0257  1803               	skipnc
  4865     0258  3E01               	addlw	1
  4866     0259  1903               	skipnz
  4867     025A  2A5C               	goto	u4813
  4868     025B  07BC               	addwf	___flmul@prod+3,f
  4869     025C                     u4813:
  4870     025C                     l3346:
  4871     025C  0834               	movf	___flmul@grs,w
  4872     025D  00AD               	movwf	??___flmul
  4873     025E  0835               	movf	___flmul@grs+1,w
  4874     025F  00AE               	movwf	??___flmul+1
  4875     0260  0836               	movf	___flmul@grs+2,w
  4876     0261  00AF               	movwf	??___flmul+2
  4877     0262  0837               	movf	___flmul@grs+3,w
  4878     0263  00B0               	movwf	??___flmul+3
  4879     0264  3018               	movlw	24
  4880     0265                     u4825:
  4881     0265  1003               	clrc
  4882     0266  0CB0               	rrf	??___flmul+3,f
  4883     0267  0CAF               	rrf	??___flmul+2,f
  4884     0268  0CAE               	rrf	??___flmul+1,f
  4885     0269  0CAD               	rrf	??___flmul,f
  4886     026A                     u4820:
  4887     026A  3EFF               	addlw	-1
  4888     026B  1D03               	skipz
  4889     026C  2A65               	goto	u4825
  4890     026D  082D               	movf	??___flmul,w
  4891     026E  07B9               	addwf	___flmul@prod,f
  4892     026F  082E               	movf	??___flmul+1,w
  4893     0270  1103               	clrz
  4894     0271  1803               	skipnc
  4895     0272  3E01               	addlw	1
  4896     0273  1903               	skipnz
  4897     0274  2A76               	goto	u4831
  4898     0275  07BA               	addwf	___flmul@prod+1,f
  4899     0276                     u4831:
  4900     0276  082F               	movf	??___flmul+2,w
  4901     0277  1103               	clrz
  4902     0278  1803               	skipnc
  4903     0279  3E01               	addlw	1
  4904     027A  1903               	skipnz
  4905     027B  2A7D               	goto	u4832
  4906     027C  07BB               	addwf	___flmul@prod+2,f
  4907     027D                     u4832:
  4908     027D  0830               	movf	??___flmul+3,w
  4909     027E  1103               	clrz
  4910     027F  1803               	skipnc
  4911     0280  3E01               	addlw	1
  4912     0281  1903               	skipnz
  4913     0282  2A84               	goto	u4833
  4914     0283  07BC               	addwf	___flmul@prod+3,f
  4915     0284                     u4833:
  4916     0284                     l3348:
  4917     0284  3008               	movlw	8
  4918     0285  00AD               	movwf	??___flmul
  4919     0286                     u4845:
  4920     0286  1003               	clrc
  4921     0287  0DB4               	rlf	___flmul@grs,f
  4922     0288  0DB5               	rlf	___flmul@grs+1,f
  4923     0289  0DB6               	rlf	___flmul@grs+2,f
  4924     028A  0DB7               	rlf	___flmul@grs+3,f
  4925     028B  0BAD               	decfsz	??___flmul,f
  4926     028C  2A86               	goto	u4845
  4927     028D                     l3350:
  4928     028D  0838               	movf	___flmul@bexp,w
  4929     028E  0733               	addwf	___flmul@aexp,w
  4930     028F  00AD               	movwf	??___flmul
  4931     0290  01AE               	clrf	??___flmul+1
  4932     0291  0DAE               	rlf	??___flmul+1,f
  4933     0292  082D               	movf	??___flmul,w
  4934     0293  3E82               	addlw	130
  4935     0294  00BD               	movwf	___flmul@temp
  4936     0295  082E               	movf	??___flmul+1,w
  4937     0296  1803               	skipnc
  4938     0297  3E01               	addlw	1
  4939     0298  3EFF               	addlw	255
  4940     0299  00BE               	movwf	___flmul@temp+1
  4941     029A  2AB8               	goto	l3362
  4942     029B                     l3352:
  4943     029B  3001               	movlw	1
  4944     029C  00AD               	movwf	??___flmul
  4945     029D                     u4855:
  4946     029D  1003               	clrc
  4947     029E  0DB9               	rlf	___flmul@prod,f
  4948     029F  0DBA               	rlf	___flmul@prod+1,f
  4949     02A0  0DBB               	rlf	___flmul@prod+2,f
  4950     02A1  0DBC               	rlf	___flmul@prod+3,f
  4951     02A2  0BAD               	decfsz	??___flmul,f
  4952     02A3  2A9D               	goto	u4855
  4953     02A4                     l3354:
  4954     02A4  1FB7               	btfss	___flmul@grs+3,7
  4955     02A5  2AA7               	goto	u4861
  4956     02A6  2AA8               	goto	u4860
  4957     02A7                     u4861:
  4958     02A7  2AA9               	goto	l3358
  4959     02A8                     u4860:
  4960     02A8                     l3356:
  4961     02A8  1439               	bsf	___flmul@prod,0
  4962     02A9                     l3358:
  4963     02A9  3001               	movlw	1
  4964     02AA  00AD               	movwf	??___flmul
  4965     02AB                     u4875:
  4966     02AB  1003               	clrc
  4967     02AC  0DB4               	rlf	___flmul@grs,f
  4968     02AD  0DB5               	rlf	___flmul@grs+1,f
  4969     02AE  0DB6               	rlf	___flmul@grs+2,f
  4970     02AF  0DB7               	rlf	___flmul@grs+3,f
  4971     02B0  0BAD               	decfsz	??___flmul,f
  4972     02B1  2AAB               	goto	u4875
  4973     02B2                     l3360:
  4974     02B2  30FF               	movlw	255
  4975     02B3  07BD               	addwf	___flmul@temp,f
  4976     02B4  1803               	skipnc
  4977     02B5  0ABE               	incf	___flmul@temp+1,f
  4978     02B6  30FF               	movlw	255
  4979     02B7  07BE               	addwf	___flmul@temp+1,f
  4980     02B8                     l3362:
  4981     02B8  1FBB               	btfss	___flmul@prod+2,7
  4982     02B9  2ABB               	goto	u4881
  4983     02BA  2ABC               	goto	u4880
  4984     02BB                     u4881:
  4985     02BB  2A9B               	goto	l3352
  4986     02BC                     u4880:
  4987     02BC                     l3364:
  4988     02BC  01B3               	clrf	___flmul@aexp
  4989     02BD                     l3366:
  4990     02BD  1FB7               	btfss	___flmul@grs+3,7
  4991     02BE  2AC0               	goto	u4891
  4992     02BF  2AC1               	goto	u4890
  4993     02C0                     u4891:
  4994     02C0  2ADD               	goto	l3374
  4995     02C1                     u4890:
  4996     02C1                     l3368:
  4997     02C1  30FF               	movlw	255
  4998     02C2  0534               	andwf	___flmul@grs,w
  4999     02C3  00AD               	movwf	??___flmul
  5000     02C4  30FF               	movlw	255
  5001     02C5  0535               	andwf	___flmul@grs+1,w
  5002     02C6  00AE               	movwf	??___flmul+1
  5003     02C7  30FF               	movlw	255
  5004     02C8  0536               	andwf	___flmul@grs+2,w
  5005     02C9  00AF               	movwf	??___flmul+2
  5006     02CA  307F               	movlw	127
  5007     02CB  0537               	andwf	___flmul@grs+3,w
  5008     02CC  00B0               	movwf	??___flmul+3
  5009     02CD  0830               	movf	??___flmul+3,w
  5010     02CE  042F               	iorwf	??___flmul+2,w
  5011     02CF  042E               	iorwf	??___flmul+1,w
  5012     02D0  042D               	iorwf	??___flmul,w
  5013     02D1  1903               	skipnz
  5014     02D2  2AD4               	goto	u4901
  5015     02D3  2AD5               	goto	u4900
  5016     02D4                     u4901:
  5017     02D4  2AD8               	goto	l676
  5018     02D5                     u4900:
  5019     02D5                     l3370:
  5020     02D5  01B3               	clrf	___flmul@aexp
  5021     02D6  0AB3               	incf	___flmul@aexp,f
  5022     02D7  2ADD               	goto	l3374
  5023     02D8                     l676:
  5024     02D8  1C39               	btfss	___flmul@prod,0
  5025     02D9  2ADB               	goto	u4911
  5026     02DA  2ADC               	goto	u4910
  5027     02DB                     u4911:
  5028     02DB  2ADD               	goto	l3374
  5029     02DC                     u4910:
  5030     02DC  2AD5               	goto	l3370
  5031     02DD                     l3374:
  5032     02DD  0833               	movf	___flmul@aexp,w
  5033     02DE  1903               	btfsc	3,2
  5034     02DF  2AE1               	goto	u4921
  5035     02E0  2AE2               	goto	u4920
  5036     02E1                     u4921:
  5037     02E1  2B13               	goto	l3384
  5038     02E2                     u4920:
  5039     02E2                     l3376:
  5040     02E2  3001               	movlw	1
  5041     02E3  07B9               	addwf	___flmul@prod,f
  5042     02E4  3000               	movlw	0
  5043     02E5  1803               	skipnc
  5044     02E6  3001               	movlw	1
  5045     02E7  07BA               	addwf	___flmul@prod+1,f
  5046     02E8  3000               	movlw	0
  5047     02E9  1803               	skipnc
  5048     02EA  3001               	movlw	1
  5049     02EB  07BB               	addwf	___flmul@prod+2,f
  5050     02EC  3000               	movlw	0
  5051     02ED  1803               	skipnc
  5052     02EE  3001               	movlw	1
  5053     02EF  07BC               	addwf	___flmul@prod+3,f
  5054     02F0                     l3378:
  5055     02F0  1C3C               	btfss	___flmul@prod+3,0
  5056     02F1  2AF3               	goto	u4931
  5057     02F2  2AF4               	goto	u4930
  5058     02F3                     u4931:
  5059     02F3  2B13               	goto	l3384
  5060     02F4                     u4930:
  5061     02F4                     l3380:
  5062     02F4  0839               	movf	___flmul@prod,w
  5063     02F5  00AD               	movwf	??___flmul
  5064     02F6  083A               	movf	___flmul@prod+1,w
  5065     02F7  00AE               	movwf	??___flmul+1
  5066     02F8  083B               	movf	___flmul@prod+2,w
  5067     02F9  00AF               	movwf	??___flmul+2
  5068     02FA  083C               	movf	___flmul@prod+3,w
  5069     02FB  00B0               	movwf	??___flmul+3
  5070     02FC  3001               	movlw	1
  5071     02FD  00B1               	movwf	??___flmul+4
  5072     02FE                     u4945:
  5073     02FE  0D30               	rlf	??___flmul+3,w
  5074     02FF  0CB0               	rrf	??___flmul+3,f
  5075     0300  0CAF               	rrf	??___flmul+2,f
  5076     0301  0CAE               	rrf	??___flmul+1,f
  5077     0302  0CAD               	rrf	??___flmul,f
  5078     0303                     u4940:
  5079     0303  0BB1               	decfsz	??___flmul+4,f
  5080     0304  2AFE               	goto	u4945
  5081     0305  0830               	movf	??___flmul+3,w
  5082     0306  00BC               	movwf	___flmul@prod+3
  5083     0307  082F               	movf	??___flmul+2,w
  5084     0308  00BB               	movwf	___flmul@prod+2
  5085     0309  082E               	movf	??___flmul+1,w
  5086     030A  00BA               	movwf	___flmul@prod+1
  5087     030B  082D               	movf	??___flmul,w
  5088     030C  00B9               	movwf	___flmul@prod
  5089     030D                     l3382:
  5090     030D  3001               	movlw	1
  5091     030E  07BD               	addwf	___flmul@temp,f
  5092     030F  1803               	skipnc
  5093     0310  0ABE               	incf	___flmul@temp+1,f
  5094     0311  3000               	movlw	0
  5095     0312  07BE               	addwf	___flmul@temp+1,f
  5096     0313                     l3384:
  5097     0313  083E               	movf	___flmul@temp+1,w
  5098     0314  3A80               	xorlw	128
  5099     0315  00FF               	movwf	btemp+1
  5100     0316  3080               	movlw	128
  5101     0317  027F               	subwf	btemp+1,w
  5102     0318  1D03               	skipz
  5103     0319  2B1C               	goto	u4955
  5104     031A  30FF               	movlw	255
  5105     031B  023D               	subwf	___flmul@temp,w
  5106     031C                     u4955:
  5107     031C  1C03               	skipc
  5108     031D  2B1F               	goto	u4951
  5109     031E  2B20               	goto	u4950
  5110     031F                     u4951:
  5111     031F  2B2B               	goto	l3388
  5112     0320                     u4950:
  5113     0320                     l3386:
  5114     0320  307F               	movlw	127
  5115     0321  1283               	bcf	3,5	;RP0=0, select bank0
  5116     0322  1303               	bcf	3,6	;RP1=0, select bank0
  5117     0323  00BC               	movwf	___flmul@prod+3
  5118     0324  3080               	movlw	128
  5119     0325  00BB               	movwf	___flmul@prod+2
  5120     0326  3000               	movlw	0
  5121     0327  00BA               	movwf	___flmul@prod+1
  5122     0328  3000               	movlw	0
  5123     0329  00B9               	movwf	___flmul@prod
  5124     032A  2B5C               	goto	l682
  5125     032B                     l3388:
  5126     032B  1283               	bcf	3,5	;RP0=0, select bank0
  5127     032C  1303               	bcf	3,6	;RP1=0, select bank0
  5128     032D  083E               	movf	___flmul@temp+1,w
  5129     032E  3A80               	xorlw	128
  5130     032F  00FF               	movwf	btemp+1
  5131     0330  3080               	movlw	128
  5132     0331  027F               	subwf	btemp+1,w
  5133     0332  1D03               	skipz
  5134     0333  2B36               	goto	u4965
  5135     0334  3001               	movlw	1
  5136     0335  023D               	subwf	___flmul@temp,w
  5137     0336                     u4965:
  5138     0336  1803               	skipnc
  5139     0337  2B39               	goto	u4961
  5140     0338  2B3A               	goto	u4960
  5141     0339                     u4961:
  5142     0339  2B46               	goto	l3394
  5143     033A                     u4960:
  5144     033A                     l3390:
  5145     033A  3000               	movlw	0
  5146     033B  1283               	bcf	3,5	;RP0=0, select bank0
  5147     033C  1303               	bcf	3,6	;RP1=0, select bank0
  5148     033D  00BC               	movwf	___flmul@prod+3
  5149     033E  3000               	movlw	0
  5150     033F  00BB               	movwf	___flmul@prod+2
  5151     0340  3000               	movlw	0
  5152     0341  00BA               	movwf	___flmul@prod+1
  5153     0342  3000               	movlw	0
  5154     0343  00B9               	movwf	___flmul@prod
  5155     0344                     l3392:
  5156     0344  01B2               	clrf	___flmul@sign
  5157     0345  2B5C               	goto	l682
  5158     0346                     l3394:
  5159     0346  1283               	bcf	3,5	;RP0=0, select bank0
  5160     0347  1303               	bcf	3,6	;RP1=0, select bank0
  5161     0348  083D               	movf	___flmul@temp,w
  5162     0349  00B8               	movwf	___flmul@bexp
  5163     034A  30FF               	movlw	255
  5164     034B  05B9               	andwf	___flmul@prod,f
  5165     034C  30FF               	movlw	255
  5166     034D  05BA               	andwf	___flmul@prod+1,f
  5167     034E  307F               	movlw	127
  5168     034F  05BB               	andwf	___flmul@prod+2,f
  5169     0350  3000               	movlw	0
  5170     0351  05BC               	andwf	___flmul@prod+3,f
  5171     0352                     l3396:
  5172     0352  1C38               	btfss	___flmul@bexp,0
  5173     0353  2B55               	goto	u4971
  5174     0354  2B56               	goto	u4970
  5175     0355                     u4971:
  5176     0355  2B57               	goto	l3400
  5177     0356                     u4970:
  5178     0356                     l3398:
  5179     0356  17BB               	bsf	___flmul@prod+2,7
  5180     0357                     l3400:
  5181     0357  0838               	movf	___flmul@bexp,w
  5182     0358  00AD               	movwf	??___flmul
  5183     0359  1003               	clrc
  5184     035A  0C2D               	rrf	??___flmul,w
  5185     035B  00BC               	movwf	___flmul@prod+3
  5186     035C                     l682:
  5187     035C  0832               	movf	___flmul@sign,w
  5188     035D  00AD               	movwf	??___flmul
  5189     035E  082D               	movf	??___flmul,w
  5190     035F  04BC               	iorwf	___flmul@prod+3,f
  5191     0360                     l3402:
  5192     0360  083C               	movf	___flmul@prod+3,w
  5193     0361  00A8               	movwf	?___flmul+3
  5194     0362  083B               	movf	___flmul@prod+2,w
  5195     0363  00A7               	movwf	?___flmul+2
  5196     0364  083A               	movf	___flmul@prod+1,w
  5197     0365  00A6               	movwf	?___flmul+1
  5198     0366  0839               	movf	___flmul@prod,w
  5199     0367  00A5               	movwf	?___flmul
  5200     0368                     l670:
  5201     0368  0008               	return
  5202     0369                     __end_of___flmul:
  5203                           
  5204                           	psect	text11
  5205     1388                     __ptext11:	
  5206 ;; *************** function __Umul8_16 *****************
  5207 ;; Defined at:
  5208 ;;		line 4 in file "C:\Program Files\Microchip\xc8\v2.40\pic\sources\c90\common\Umul8_16.c"
  5209 ;; Parameters:    Size  Location     Type
  5210 ;;  multiplier      1    wreg     unsigned char 
  5211 ;;  multiplicand    1    0[COMMON] unsigned char 
  5212 ;; Auto vars:     Size  Location     Type
  5213 ;;  multiplier      1    8[COMMON] unsigned char 
  5214 ;;  word_mpld       2    6[COMMON] unsigned int 
  5215 ;;  product         2    4[COMMON] unsigned int 
  5216 ;; Return value:  Size  Location     Type
  5217 ;;                  2    0[COMMON] unsigned int 
  5218 ;; Registers used:
  5219 ;;		wreg, status,2, status,0
  5220 ;; Tracked objects:
  5221 ;;		On entry : 0/0
  5222 ;;		On exit  : 0/0
  5223 ;;		Unchanged: 0/0
  5224 ;; Data sizes:     COMMON   BANK0   BANK1   BANK3   BANK2
  5225 ;;      Params:         2       0       0       0       0
  5226 ;;      Locals:         5       0       0       0       0
  5227 ;;      Temps:          2       0       0       0       0
  5228 ;;      Totals:         9       0       0       0       0
  5229 ;;Total ram usage:        9 bytes
  5230 ;; Hardware stack levels used: 1
  5231 ;; This function calls:
  5232 ;;		Nothing
  5233 ;; This function is called by:
  5234 ;;		___flmul
  5235 ;; This function uses a non-reentrant model
  5236 ;;
  5237                           
  5238     1388                     __Umul8_16:	
  5239                           ;psect for function __Umul8_16
  5240                           
  5241                           
  5242                           ;incstack = 0
  5243                           ; Regs used in __Umul8_16: [wreg+status,2+status,0]
  5244                           ;__Umul8_16@multiplier stored from wreg
  5245     1388  00F8               	movwf	__Umul8_16@multiplier
  5246     1389                     l3046:
  5247     1389  01F4               	clrf	__Umul8_16@product
  5248     138A  01F5               	clrf	__Umul8_16@product+1
  5249     138B                     l3048:
  5250     138B  0870               	movf	__Umul8_16@multiplicand,w
  5251     138C  00F2               	movwf	??__Umul8_16
  5252     138D  01F3               	clrf	??__Umul8_16+1
  5253     138E  0872               	movf	??__Umul8_16,w
  5254     138F  00F6               	movwf	__Umul8_16@word_mpld
  5255     1390  0873               	movf	??__Umul8_16+1,w
  5256     1391  00F7               	movwf	__Umul8_16@word_mpld+1
  5257     1392                     l3050:
  5258     1392  1C78               	btfss	__Umul8_16@multiplier,0
  5259     1393  2B95               	goto	u4091
  5260     1394  2B96               	goto	u4090
  5261     1395                     u4091:
  5262     1395  2B9C               	goto	l689
  5263     1396                     u4090:
  5264     1396                     l3052:
  5265     1396  0876               	movf	__Umul8_16@word_mpld,w
  5266     1397  07F4               	addwf	__Umul8_16@product,f
  5267     1398  1803               	skipnc
  5268     1399  0AF5               	incf	__Umul8_16@product+1,f
  5269     139A  0877               	movf	__Umul8_16@word_mpld+1,w
  5270     139B  07F5               	addwf	__Umul8_16@product+1,f
  5271     139C                     l689:
  5272     139C  3001               	movlw	1
  5273     139D                     u4105:
  5274     139D  1003               	clrc
  5275     139E  0DF6               	rlf	__Umul8_16@word_mpld,f
  5276     139F  0DF7               	rlf	__Umul8_16@word_mpld+1,f
  5277     13A0  3EFF               	addlw	-1
  5278     13A1  1D03               	skipz
  5279     13A2  2B9D               	goto	u4105
  5280     13A3  1003               	clrc
  5281     13A4  0CF8               	rrf	__Umul8_16@multiplier,f
  5282     13A5                     l3054:
  5283     13A5  0878               	movf	__Umul8_16@multiplier,w
  5284     13A6  1D03               	btfss	3,2
  5285     13A7  2BA9               	goto	u4111
  5286     13A8  2BAA               	goto	u4110
  5287     13A9                     u4111:
  5288     13A9  2B92               	goto	l3050
  5289     13AA                     u4110:
  5290     13AA                     l3056:
  5291     13AA  0875               	movf	__Umul8_16@product+1,w
  5292     13AB  00F1               	movwf	?__Umul8_16+1
  5293     13AC  0874               	movf	__Umul8_16@product,w
  5294     13AD  00F0               	movwf	?__Umul8_16
  5295     13AE                     l691:
  5296     13AE  0008               	return
  5297     13AF                     __end_of__Umul8_16:
  5298                           
  5299                           	psect	text12
  5300     080C                     __ptext12:	
  5301 ;; *************** function ___xxtofl *****************
  5302 ;; Defined at:
  5303 ;;		line 10 in file "C:\Program Files\Microchip\xc8\v2.40\pic\sources\c90\common\xxtofl.c"
  5304 ;; Parameters:    Size  Location     Type
  5305 ;;  sign            1    wreg     unsigned char 
  5306 ;;  val             4    0[COMMON] long 
  5307 ;; Auto vars:     Size  Location     Type
  5308 ;;  sign            1    8[COMMON] unsigned char 
  5309 ;;  arg             4   10[COMMON] unsigned long 
  5310 ;;  exp             1    9[COMMON] unsigned char 
  5311 ;; Return value:  Size  Location     Type
  5312 ;;                  4    0[COMMON] unsigned char 
  5313 ;; Registers used:
  5314 ;;		wreg, status,2, status,0
  5315 ;; Tracked objects:
  5316 ;;		On entry : 0/0
  5317 ;;		On exit  : 0/0
  5318 ;;		Unchanged: 0/0
  5319 ;; Data sizes:     COMMON   BANK0   BANK1   BANK3   BANK2
  5320 ;;      Params:         4       0       0       0       0
  5321 ;;      Locals:         6       0       0       0       0
  5322 ;;      Temps:          4       0       0       0       0
  5323 ;;      Totals:        14       0       0       0       0
  5324 ;;Total ram usage:       14 bytes
  5325 ;; Hardware stack levels used: 1
  5326 ;; This function calls:
  5327 ;;		Nothing
  5328 ;; This function is called by:
  5329 ;;		_main
  5330 ;;		_log
  5331 ;; This function uses a non-reentrant model
  5332 ;;
  5333                           
  5334     080C                     ___xxtofl:	
  5335                           ;psect for function ___xxtofl
  5336                           
  5337                           
  5338                           ;incstack = 0
  5339                           ; Regs used in ___xxtofl: [wreg+status,2+status,0]
  5340                           ;___xxtofl@sign stored from wreg
  5341     080C  00F8               	movwf	___xxtofl@sign
  5342     080D                     l3426:
  5343     080D  0878               	movf	___xxtofl@sign,w
  5344     080E  1903               	btfsc	3,2
  5345     080F  2811               	goto	u5051
  5346     0810  2812               	goto	u5050
  5347     0811                     u5051:
  5348     0811  2826               	goto	l3432
  5349     0812                     u5050:
  5350     0812                     l3428:
  5351     0812  1FF3               	btfss	___xxtofl@val+3,7
  5352     0813  2815               	goto	u5061
  5353     0814  2816               	goto	u5060
  5354     0815                     u5061:
  5355     0815  2826               	goto	l3432
  5356     0816                     u5060:
  5357     0816                     l3430:
  5358     0816  0970               	comf	___xxtofl@val,w
  5359     0817  00FA               	movwf	___xxtofl@arg
  5360     0818  0971               	comf	___xxtofl@val+1,w
  5361     0819  00FB               	movwf	___xxtofl@arg+1
  5362     081A  0972               	comf	___xxtofl@val+2,w
  5363     081B  00FC               	movwf	___xxtofl@arg+2
  5364     081C  0973               	comf	___xxtofl@val+3,w
  5365     081D  00FD               	movwf	___xxtofl@arg+3
  5366     081E  0AFA               	incf	___xxtofl@arg,f
  5367     081F  1903               	skipnz
  5368     0820  0AFB               	incf	___xxtofl@arg+1,f
  5369     0821  1903               	skipnz
  5370     0822  0AFC               	incf	___xxtofl@arg+2,f
  5371     0823  1903               	skipnz
  5372     0824  0AFD               	incf	___xxtofl@arg+3,f
  5373     0825  282E               	goto	l714
  5374     0826                     l3432:
  5375     0826  0873               	movf	___xxtofl@val+3,w
  5376     0827  00FD               	movwf	___xxtofl@arg+3
  5377     0828  0872               	movf	___xxtofl@val+2,w
  5378     0829  00FC               	movwf	___xxtofl@arg+2
  5379     082A  0871               	movf	___xxtofl@val+1,w
  5380     082B  00FB               	movwf	___xxtofl@arg+1
  5381     082C  0870               	movf	___xxtofl@val,w
  5382     082D  00FA               	movwf	___xxtofl@arg
  5383     082E                     l714:
  5384     082E  0873               	movf	___xxtofl@val+3,w
  5385     082F  0472               	iorwf	___xxtofl@val+2,w
  5386     0830  0471               	iorwf	___xxtofl@val+1,w
  5387     0831  0470               	iorwf	___xxtofl@val,w
  5388     0832  1D03               	skipz
  5389     0833  2835               	goto	u5071
  5390     0834  2836               	goto	u5070
  5391     0835                     u5071:
  5392     0835  283F               	goto	l3438
  5393     0836                     u5070:
  5394     0836                     l3434:
  5395     0836  3000               	movlw	0
  5396     0837  00F3               	movwf	?___xxtofl+3
  5397     0838  3000               	movlw	0
  5398     0839  00F2               	movwf	?___xxtofl+2
  5399     083A  3000               	movlw	0
  5400     083B  00F1               	movwf	?___xxtofl+1
  5401     083C  3000               	movlw	0
  5402     083D  00F0               	movwf	?___xxtofl
  5403     083E  28C3               	goto	l716
  5404     083F                     l3438:
  5405     083F  3096               	movlw	150
  5406     0840  00F9               	movwf	___xxtofl@exp
  5407     0841  284F               	goto	l3442
  5408     0842                     l3440:
  5409     0842  3001               	movlw	1
  5410     0843  00F4               	movwf	??___xxtofl
  5411     0844  0874               	movf	??___xxtofl,w
  5412     0845  07F9               	addwf	___xxtofl@exp,f
  5413     0846  3001               	movlw	1
  5414     0847                     u5085:
  5415     0847  1003               	clrc
  5416     0848  0CFD               	rrf	___xxtofl@arg+3,f
  5417     0849  0CFC               	rrf	___xxtofl@arg+2,f
  5418     084A  0CFB               	rrf	___xxtofl@arg+1,f
  5419     084B  0CFA               	rrf	___xxtofl@arg,f
  5420     084C  3EFF               	addlw	-1
  5421     084D  1D03               	skipz
  5422     084E  2847               	goto	u5085
  5423     084F                     l3442:
  5424     084F  30FE               	movlw	254
  5425     0850  057D               	andwf	___xxtofl@arg+3,w
  5426     0851  1D03               	btfss	3,2
  5427     0852  2854               	goto	u5091
  5428     0853  2855               	goto	u5090
  5429     0854                     u5091:
  5430     0854  2842               	goto	l3440
  5431     0855                     u5090:
  5432     0855  2871               	goto	l720
  5433     0856                     l3444:
  5434     0856  3001               	movlw	1
  5435     0857  00F4               	movwf	??___xxtofl
  5436     0858  0874               	movf	??___xxtofl,w
  5437     0859  07F9               	addwf	___xxtofl@exp,f
  5438     085A                     l3446:
  5439     085A  3001               	movlw	1
  5440     085B  07FA               	addwf	___xxtofl@arg,f
  5441     085C  3000               	movlw	0
  5442     085D  1803               	skipnc
  5443     085E  3001               	movlw	1
  5444     085F  07FB               	addwf	___xxtofl@arg+1,f
  5445     0860  3000               	movlw	0
  5446     0861  1803               	skipnc
  5447     0862  3001               	movlw	1
  5448     0863  07FC               	addwf	___xxtofl@arg+2,f
  5449     0864  3000               	movlw	0
  5450     0865  1803               	skipnc
  5451     0866  3001               	movlw	1
  5452     0867  07FD               	addwf	___xxtofl@arg+3,f
  5453     0868                     l3448:
  5454     0868  3001               	movlw	1
  5455     0869                     u5105:
  5456     0869  1003               	clrc
  5457     086A  0CFD               	rrf	___xxtofl@arg+3,f
  5458     086B  0CFC               	rrf	___xxtofl@arg+2,f
  5459     086C  0CFB               	rrf	___xxtofl@arg+1,f
  5460     086D  0CFA               	rrf	___xxtofl@arg,f
  5461     086E  3EFF               	addlw	-1
  5462     086F  1D03               	skipz
  5463     0870  2869               	goto	u5105
  5464     0871                     l720:
  5465     0871  30FF               	movlw	255
  5466     0872  057D               	andwf	___xxtofl@arg+3,w
  5467     0873  1D03               	btfss	3,2
  5468     0874  2876               	goto	u5111
  5469     0875  2877               	goto	u5110
  5470     0876                     u5111:
  5471     0876  2856               	goto	l3444
  5472     0877                     u5110:
  5473     0877  2883               	goto	l3452
  5474     0878                     l3450:
  5475     0878  3001               	movlw	1
  5476     0879  02F9               	subwf	___xxtofl@exp,f
  5477     087A  3001               	movlw	1
  5478     087B  00F4               	movwf	??___xxtofl
  5479     087C                     u5125:
  5480     087C  1003               	clrc
  5481     087D  0DFA               	rlf	___xxtofl@arg,f
  5482     087E  0DFB               	rlf	___xxtofl@arg+1,f
  5483     087F  0DFC               	rlf	___xxtofl@arg+2,f
  5484     0880  0DFD               	rlf	___xxtofl@arg+3,f
  5485     0881  0BF4               	decfsz	??___xxtofl,f
  5486     0882  287C               	goto	u5125
  5487     0883                     l3452:
  5488     0883  1BFC               	btfsc	___xxtofl@arg+2,7
  5489     0884  2886               	goto	u5131
  5490     0885  2887               	goto	u5130
  5491     0886                     u5131:
  5492     0886  288D               	goto	l727
  5493     0887                     u5130:
  5494     0887                     l3454:
  5495     0887  3002               	movlw	2
  5496     0888  0279               	subwf	___xxtofl@exp,w
  5497     0889  1803               	skipnc
  5498     088A  288C               	goto	u5141
  5499     088B  288D               	goto	u5140
  5500     088C                     u5141:
  5501     088C  2878               	goto	l3450
  5502     088D                     u5140:
  5503     088D                     l727:
  5504     088D  1879               	btfsc	___xxtofl@exp,0
  5505     088E  2890               	goto	u5151
  5506     088F  2891               	goto	u5150
  5507     0890                     u5151:
  5508     0890  2899               	goto	l728
  5509     0891                     u5150:
  5510     0891                     l3456:
  5511     0891  30FF               	movlw	255
  5512     0892  05FA               	andwf	___xxtofl@arg,f
  5513     0893  30FF               	movlw	255
  5514     0894  05FB               	andwf	___xxtofl@arg+1,f
  5515     0895  307F               	movlw	127
  5516     0896  05FC               	andwf	___xxtofl@arg+2,f
  5517     0897  30FF               	movlw	255
  5518     0898  05FD               	andwf	___xxtofl@arg+3,f
  5519     0899                     l728:
  5520     0899  1003               	clrc
  5521     089A  0CF9               	rrf	___xxtofl@exp,f
  5522     089B                     l3458:
  5523     089B  0879               	movf	___xxtofl@exp,w
  5524     089C  00F4               	movwf	??___xxtofl
  5525     089D  01F5               	clrf	??___xxtofl+1
  5526     089E  01F6               	clrf	??___xxtofl+2
  5527     089F  01F7               	clrf	??___xxtofl+3
  5528     08A0  3018               	movlw	24
  5529     08A1                     u5165:
  5530     08A1  1003               	clrc
  5531     08A2  0DF4               	rlf	??___xxtofl,f
  5532     08A3  0DF5               	rlf	??___xxtofl+1,f
  5533     08A4  0DF6               	rlf	??___xxtofl+2,f
  5534     08A5  0DF7               	rlf	??___xxtofl+3,f
  5535     08A6                     u5160:
  5536     08A6  3EFF               	addlw	-1
  5537     08A7  1D03               	skipz
  5538     08A8  28A1               	goto	u5165
  5539     08A9  0874               	movf	??___xxtofl,w
  5540     08AA  04FA               	iorwf	___xxtofl@arg,f
  5541     08AB  0875               	movf	??___xxtofl+1,w
  5542     08AC  04FB               	iorwf	___xxtofl@arg+1,f
  5543     08AD  0876               	movf	??___xxtofl+2,w
  5544     08AE  04FC               	iorwf	___xxtofl@arg+2,f
  5545     08AF  0877               	movf	??___xxtofl+3,w
  5546     08B0  04FD               	iorwf	___xxtofl@arg+3,f
  5547     08B1                     l3460:
  5548     08B1  0878               	movf	___xxtofl@sign,w
  5549     08B2  1903               	btfsc	3,2
  5550     08B3  28B5               	goto	u5171
  5551     08B4  28B6               	goto	u5170
  5552     08B5                     u5171:
  5553     08B5  28BB               	goto	l3466
  5554     08B6                     u5170:
  5555     08B6                     l3462:
  5556     08B6  1FF3               	btfss	___xxtofl@val+3,7
  5557     08B7  28B9               	goto	u5181
  5558     08B8  28BA               	goto	u5180
  5559     08B9                     u5181:
  5560     08B9  28BB               	goto	l3466
  5561     08BA                     u5180:
  5562     08BA                     l3464:
  5563     08BA  17FD               	bsf	___xxtofl@arg+3,7
  5564     08BB                     l3466:
  5565     08BB  087D               	movf	___xxtofl@arg+3,w
  5566     08BC  00F3               	movwf	?___xxtofl+3
  5567     08BD  087C               	movf	___xxtofl@arg+2,w
  5568     08BE  00F2               	movwf	?___xxtofl+2
  5569     08BF  087B               	movf	___xxtofl@arg+1,w
  5570     08C0  00F1               	movwf	?___xxtofl+1
  5571     08C1  087A               	movf	___xxtofl@arg,w
  5572     08C2  00F0               	movwf	?___xxtofl
  5573     08C3                     l716:
  5574     08C3  0008               	return
  5575     08C4                     __end_of___xxtofl:
  5576                           
  5577                           	psect	text13
  5578     175E                     __ptext13:	
  5579 ;; *************** function ___flge *****************
  5580 ;; Defined at:
  5581 ;;		line 4 in file "C:\Program Files\Microchip\xc8\v2.40\pic\sources\c90\common\flge.c"
  5582 ;; Parameters:    Size  Location     Type
  5583 ;;  ff1             4    0[COMMON] unsigned char 
  5584 ;;  ff2             4    4[COMMON] unsigned char 
  5585 ;; Auto vars:     Size  Location     Type
  5586 ;;		None
  5587 ;; Return value:  Size  Location     Type
  5588 ;;		None               void
  5589 ;; Registers used:
  5590 ;;		wreg, status,2, status,0
  5591 ;; Tracked objects:
  5592 ;;		On entry : 0/0
  5593 ;;		On exit  : 0/0
  5594 ;;		Unchanged: 0/0
  5595 ;; Data sizes:     COMMON   BANK0   BANK1   BANK3   BANK2
  5596 ;;      Params:         8       0       0       0       0
  5597 ;;      Locals:         0       0       0       0       0
  5598 ;;      Temps:          4       0       0       0       0
  5599 ;;      Totals:        12       0       0       0       0
  5600 ;;Total ram usage:       12 bytes
  5601 ;; Hardware stack levels used: 1
  5602 ;; This function calls:
  5603 ;;		Nothing
  5604 ;; This function is called by:
  5605 ;;		_main
  5606 ;;		_log
  5607 ;; This function uses a non-reentrant model
  5608 ;;
  5609                           
  5610     175E                     ___flge:	
  5611                           ;psect for function ___flge
  5612                           
  5613     175E                     l3406:	
  5614                           ;incstack = 0
  5615                           ; Regs used in ___flge: [wreg+status,2+status,0]
  5616                           
  5617     175E  3000               	movlw	0
  5618     175F  0570               	andwf	___flge@ff1,w
  5619     1760  00F8               	movwf	??___flge
  5620     1761  3000               	movlw	0
  5621     1762  0571               	andwf	___flge@ff1+1,w
  5622     1763  00F9               	movwf	??___flge+1
  5623     1764  3080               	movlw	128
  5624     1765  0572               	andwf	___flge@ff1+2,w
  5625     1766  00FA               	movwf	??___flge+2
  5626     1767  307F               	movlw	127
  5627     1768  0573               	andwf	___flge@ff1+3,w
  5628     1769  00FB               	movwf	??___flge+3
  5629     176A  087B               	movf	??___flge+3,w
  5630     176B  047A               	iorwf	??___flge+2,w
  5631     176C  0479               	iorwf	??___flge+1,w
  5632     176D  0478               	iorwf	??___flge,w
  5633     176E  1D03               	skipz
  5634     176F  2F71               	goto	u4981
  5635     1770  2F72               	goto	u4980
  5636     1771                     u4981:
  5637     1771  2F7A               	goto	l455
  5638     1772                     u4980:
  5639     1772                     l3408:
  5640     1772  3000               	movlw	0
  5641     1773  00F3               	movwf	___flge@ff1+3
  5642     1774  3000               	movlw	0
  5643     1775  00F2               	movwf	___flge@ff1+2
  5644     1776  3000               	movlw	0
  5645     1777  00F1               	movwf	___flge@ff1+1
  5646     1778  3000               	movlw	0
  5647     1779  00F0               	movwf	___flge@ff1
  5648     177A                     l455:
  5649     177A  3000               	movlw	0
  5650     177B  0574               	andwf	___flge@ff2,w
  5651     177C  00F8               	movwf	??___flge
  5652     177D  3000               	movlw	0
  5653     177E  0575               	andwf	___flge@ff2+1,w
  5654     177F  00F9               	movwf	??___flge+1
  5655     1780  3080               	movlw	128
  5656     1781  0576               	andwf	___flge@ff2+2,w
  5657     1782  00FA               	movwf	??___flge+2
  5658     1783  307F               	movlw	127
  5659     1784  0577               	andwf	___flge@ff2+3,w
  5660     1785  00FB               	movwf	??___flge+3
  5661     1786  087B               	movf	??___flge+3,w
  5662     1787  047A               	iorwf	??___flge+2,w
  5663     1788  0479               	iorwf	??___flge+1,w
  5664     1789  0478               	iorwf	??___flge,w
  5665     178A  1D03               	skipz
  5666     178B  2F8D               	goto	u4991
  5667     178C  2F8E               	goto	u4990
  5668     178D                     u4991:
  5669     178D  2F96               	goto	l3412
  5670     178E                     u4990:
  5671     178E                     l3410:
  5672     178E  3000               	movlw	0
  5673     178F  00F7               	movwf	___flge@ff2+3
  5674     1790  3000               	movlw	0
  5675     1791  00F6               	movwf	___flge@ff2+2
  5676     1792  3000               	movlw	0
  5677     1793  00F5               	movwf	___flge@ff2+1
  5678     1794  3000               	movlw	0
  5679     1795  00F4               	movwf	___flge@ff2
  5680     1796                     l3412:
  5681     1796  1FF3               	btfss	___flge@ff1+3,7
  5682     1797  2F99               	goto	u5001
  5683     1798  2F9A               	goto	u5000
  5684     1799                     u5001:
  5685     1799  2FBE               	goto	l3416
  5686     179A                     u5000:
  5687     179A                     l3414:
  5688     179A  3000               	movlw	0
  5689     179B  00F8               	movwf	??___flge
  5690     179C  3000               	movlw	0
  5691     179D  00F9               	movwf	??___flge+1
  5692     179E  3000               	movlw	0
  5693     179F  00FA               	movwf	??___flge+2
  5694     17A0  3080               	movlw	128
  5695     17A1  00FB               	movwf	??___flge+3
  5696     17A2  0870               	movf	___flge@ff1,w
  5697     17A3  02F8               	subwf	??___flge,f
  5698     17A4  0871               	movf	___flge@ff1+1,w
  5699     17A5  1C03               	skipc
  5700     17A6  0F71               	incfsz	___flge@ff1+1,w
  5701     17A7  2FA9               	goto	u5011
  5702     17A8  2FAA               	goto	u5012
  5703     17A9                     u5011:
  5704     17A9  02F9               	subwf	??___flge+1,f
  5705     17AA                     u5012:
  5706     17AA  0872               	movf	___flge@ff1+2,w
  5707     17AB  1C03               	skipc
  5708     17AC  0F72               	incfsz	___flge@ff1+2,w
  5709     17AD  2FAF               	goto	u5013
  5710     17AE  2FB0               	goto	u5014
  5711     17AF                     u5013:
  5712     17AF  02FA               	subwf	??___flge+2,f
  5713     17B0                     u5014:
  5714     17B0  0873               	movf	___flge@ff1+3,w
  5715     17B1  1C03               	skipc
  5716     17B2  0F73               	incfsz	___flge@ff1+3,w
  5717     17B3  2FB5               	goto	u5015
  5718     17B4  2FB6               	goto	u5016
  5719     17B5                     u5015:
  5720     17B5  02FB               	subwf	??___flge+3,f
  5721     17B6                     u5016:
  5722     17B6  087B               	movf	??___flge+3,w
  5723     17B7  00F3               	movwf	___flge@ff1+3
  5724     17B8  087A               	movf	??___flge+2,w
  5725     17B9  00F2               	movwf	___flge@ff1+2
  5726     17BA  0879               	movf	??___flge+1,w
  5727     17BB  00F1               	movwf	___flge@ff1+1
  5728     17BC  0878               	movf	??___flge,w
  5729     17BD  00F0               	movwf	___flge@ff1
  5730     17BE                     l3416:
  5731     17BE  1FF7               	btfss	___flge@ff2+3,7
  5732     17BF  2FC1               	goto	u5021
  5733     17C0  2FC2               	goto	u5020
  5734     17C1                     u5021:
  5735     17C1  2FE6               	goto	l458
  5736     17C2                     u5020:
  5737     17C2                     l3418:
  5738     17C2  3000               	movlw	0
  5739     17C3  00F8               	movwf	??___flge
  5740     17C4  3000               	movlw	0
  5741     17C5  00F9               	movwf	??___flge+1
  5742     17C6  3000               	movlw	0
  5743     17C7  00FA               	movwf	??___flge+2
  5744     17C8  3080               	movlw	128
  5745     17C9  00FB               	movwf	??___flge+3
  5746     17CA  0874               	movf	___flge@ff2,w
  5747     17CB  02F8               	subwf	??___flge,f
  5748     17CC  0875               	movf	___flge@ff2+1,w
  5749     17CD  1C03               	skipc
  5750     17CE  0F75               	incfsz	___flge@ff2+1,w
  5751     17CF  2FD1               	goto	u5031
  5752     17D0  2FD2               	goto	u5032
  5753     17D1                     u5031:
  5754     17D1  02F9               	subwf	??___flge+1,f
  5755     17D2                     u5032:
  5756     17D2  0876               	movf	___flge@ff2+2,w
  5757     17D3  1C03               	skipc
  5758     17D4  0F76               	incfsz	___flge@ff2+2,w
  5759     17D5  2FD7               	goto	u5033
  5760     17D6  2FD8               	goto	u5034
  5761     17D7                     u5033:
  5762     17D7  02FA               	subwf	??___flge+2,f
  5763     17D8                     u5034:
  5764     17D8  0877               	movf	___flge@ff2+3,w
  5765     17D9  1C03               	skipc
  5766     17DA  0F77               	incfsz	___flge@ff2+3,w
  5767     17DB  2FDD               	goto	u5035
  5768     17DC  2FDE               	goto	u5036
  5769     17DD                     u5035:
  5770     17DD  02FB               	subwf	??___flge+3,f
  5771     17DE                     u5036:
  5772     17DE  087B               	movf	??___flge+3,w
  5773     17DF  00F7               	movwf	___flge@ff2+3
  5774     17E0  087A               	movf	??___flge+2,w
  5775     17E1  00F6               	movwf	___flge@ff2+2
  5776     17E2  0879               	movf	??___flge+1,w
  5777     17E3  00F5               	movwf	___flge@ff2+1
  5778     17E4  0878               	movf	??___flge,w
  5779     17E5  00F4               	movwf	___flge@ff2
  5780     17E6                     l458:
  5781     17E6  3080               	movlw	128
  5782     17E7  06F3               	xorwf	___flge@ff1+3,f
  5783     17E8  3080               	movlw	128
  5784     17E9  06F7               	xorwf	___flge@ff2+3,f
  5785     17EA  0877               	movf	___flge@ff2+3,w
  5786     17EB  0273               	subwf	___flge@ff1+3,w
  5787     17EC  1D03               	skipz
  5788     17ED  2FF8               	goto	u5045
  5789     17EE  0876               	movf	___flge@ff2+2,w
  5790     17EF  0272               	subwf	___flge@ff1+2,w
  5791     17F0  1D03               	skipz
  5792     17F1  2FF8               	goto	u5045
  5793     17F2  0875               	movf	___flge@ff2+1,w
  5794     17F3  0271               	subwf	___flge@ff1+1,w
  5795     17F4  1D03               	skipz
  5796     17F5  2FF8               	goto	u5045
  5797     17F6  0874               	movf	___flge@ff2,w
  5798     17F7  0270               	subwf	___flge@ff1,w
  5799     17F8                     u5045:
  5800     17F8  1803               	skipnc
  5801     17F9  2FFB               	goto	u5041
  5802     17FA  2FFC               	goto	u5040
  5803     17FB                     u5041:
  5804     17FB  2FFE               	goto	l3422
  5805     17FC                     u5040:
  5806     17FC                     l3420:
  5807     17FC  1003               	clrc
  5808     17FD  2FFF               	goto	l459
  5809     17FE                     l3422:
  5810     17FE  1403               	setc
  5811     17FF                     l459:
  5812     17FF  0008               	return
  5813     1800                     __end_of___flge:
  5814                           
  5815                           	psect	text14
  5816     1633                     __ptext14:	
  5817 ;; *************** function ___fltol *****************
  5818 ;; Defined at:
  5819 ;;		line 43 in file "C:\Program Files\Microchip\xc8\v2.40\pic\sources\c90\common\fltol.c"
  5820 ;; Parameters:    Size  Location     Type
  5821 ;;  f1              4    8[BANK1 ] unsigned char 
  5822 ;; Auto vars:     Size  Location     Type
  5823 ;;  exp1            1   78[BANK0 ] unsigned char 
  5824 ;;  sign1           1   77[BANK0 ] unsigned char 
  5825 ;; Return value:  Size  Location     Type
  5826 ;;                  4    8[BANK1 ] long 
  5827 ;; Registers used:
  5828 ;;		wreg, status,2, status,0
  5829 ;; Tracked objects:
  5830 ;;		On entry : 0/0
  5831 ;;		On exit  : 0/0
  5832 ;;		Unchanged: 0/0
  5833 ;; Data sizes:     COMMON   BANK0   BANK1   BANK3   BANK2
  5834 ;;      Params:         0       0       4       0       0
  5835 ;;      Locals:         0       2       0       0       0
  5836 ;;      Temps:          0       0       4       0       0
  5837 ;;      Totals:         0       2       8       0       0
  5838 ;;Total ram usage:       10 bytes
  5839 ;; Hardware stack levels used: 1
  5840 ;; This function calls:
  5841 ;;		Nothing
  5842 ;; This function is called by:
  5843 ;;		_main
  5844 ;; This function uses a non-reentrant model
  5845 ;;
  5846                           
  5847     1633                     ___fltol:	
  5848                           ;psect for function ___fltol
  5849                           
  5850     1633                     l2714:	
  5851                           ;incstack = 0
  5852                           ; Regs used in ___fltol: [wreg+status,2+status,0]
  5853                           
  5854     1633  1003               	clrc
  5855     1634  1683               	bsf	3,5	;RP0=1, select bank1
  5856     1635  1303               	bcf	3,6	;RP1=0, select bank1
  5857     1636  0D2A               	rlf	(___fltol@f1+2)^(0+128),w
  5858     1637  0D2B               	rlf	(___fltol@f1+3)^(0+128),w
  5859     1638  1283               	bcf	3,5	;RP0=0, select bank0
  5860     1639  1303               	bcf	3,6	;RP1=0, select bank0
  5861     163A  00EE               	movwf	___fltol@exp1
  5862     163B  086E               	movf	___fltol@exp1,w
  5863     163C  1D03               	btfss	3,2
  5864     163D  2E3F               	goto	u3611
  5865     163E  2E40               	goto	u3610
  5866     163F                     u3611:
  5867     163F  2E4B               	goto	l2720
  5868     1640                     u3610:
  5869     1640                     l2716:
  5870     1640  3000               	movlw	0
  5871     1641  1683               	bsf	3,5	;RP0=1, select bank1
  5872     1642  1303               	bcf	3,6	;RP1=0, select bank1
  5873     1643  00AB               	movwf	(?___fltol+3)^(0+128)
  5874     1644  3000               	movlw	0
  5875     1645  00AA               	movwf	(?___fltol+2)^(0+128)
  5876     1646  3000               	movlw	0
  5877     1647  00A9               	movwf	(?___fltol+1)^(0+128)
  5878     1648  3000               	movlw	0
  5879     1649  00A8               	movwf	?___fltol^(0+128)
  5880     164A  2EC0               	goto	l467
  5881     164B                     l2720:
  5882     164B  1683               	bsf	3,5	;RP0=1, select bank1
  5883     164C  1303               	bcf	3,6	;RP1=0, select bank1
  5884     164D  0828               	movf	___fltol@f1^(0+128),w
  5885     164E  00AC               	movwf	??___fltol^(0+128)
  5886     164F  0829               	movf	(___fltol@f1+1)^(0+128),w
  5887     1650  00AD               	movwf	(??___fltol^(0+128)+1)
  5888     1651  082A               	movf	(___fltol@f1+2)^(0+128),w
  5889     1652  00AE               	movwf	(??___fltol^(0+128)+2)
  5890     1653  082B               	movf	(___fltol@f1+3)^(0+128),w
  5891     1654  00AF               	movwf	(??___fltol^(0+128)+3)
  5892     1655  301F               	movlw	31
  5893     1656                     u3625:
  5894     1656  1003               	clrc
  5895     1657  0CAF               	rrf	(??___fltol^(0+128)+3),f
  5896     1658  0CAE               	rrf	(??___fltol^(0+128)+2),f
  5897     1659  0CAD               	rrf	(??___fltol^(0+128)+1),f
  5898     165A  0CAC               	rrf	??___fltol^(0+128),f
  5899     165B                     u3620:
  5900     165B  3EFF               	addlw	-1
  5901     165C  1D03               	skipz
  5902     165D  2E56               	goto	u3625
  5903     165E  082C               	movf	??___fltol^(0+128),w
  5904     165F  1283               	bcf	3,5	;RP0=0, select bank0
  5905     1660  1303               	bcf	3,6	;RP1=0, select bank0
  5906     1661  00ED               	movwf	___fltol@sign1
  5907     1662                     l2722:
  5908     1662  1683               	bsf	3,5	;RP0=1, select bank1
  5909     1663  1303               	bcf	3,6	;RP1=0, select bank1
  5910     1664  17AA               	bsf	(___fltol@f1^(0+128)+2),7
  5911     1665                     l2724:
  5912     1665  30FF               	movlw	255
  5913     1666  05A8               	andwf	___fltol@f1^(0+128),f
  5914     1667  30FF               	movlw	255
  5915     1668  05A9               	andwf	(___fltol@f1+1)^(0+128),f
  5916     1669  30FF               	movlw	255
  5917     166A  05AA               	andwf	(___fltol@f1+2)^(0+128),f
  5918     166B  3000               	movlw	0
  5919     166C  05AB               	andwf	(___fltol@f1+3)^(0+128),f
  5920     166D                     l2726:
  5921     166D  3096               	movlw	150
  5922     166E  1283               	bcf	3,5	;RP0=0, select bank0
  5923     166F  1303               	bcf	3,6	;RP1=0, select bank0
  5924     1670  02EE               	subwf	___fltol@exp1,f
  5925     1671                     l2728:
  5926     1671  1FEE               	btfss	___fltol@exp1,7
  5927     1672  2E74               	goto	u3631
  5928     1673  2E75               	goto	u3630
  5929     1674                     u3631:
  5930     1674  2E93               	goto	l2738
  5931     1675                     u3630:
  5932     1675                     l2730:
  5933     1675  086E               	movf	___fltol@exp1,w
  5934     1676  3A80               	xorlw	128
  5935     1677  3E97               	addlw	151
  5936     1678  1803               	skipnc
  5937     1679  2E7B               	goto	u3641
  5938     167A  2E7C               	goto	u3640
  5939     167B                     u3641:
  5940     167B  2E7D               	goto	l2736
  5941     167C                     u3640:
  5942     167C  2E40               	goto	l2716
  5943     167D                     l2736:
  5944     167D  3001               	movlw	1
  5945     167E                     u3655:
  5946     167E  1003               	clrc
  5947     167F  1683               	bsf	3,5	;RP0=1, select bank1
  5948     1680  1303               	bcf	3,6	;RP1=0, select bank1
  5949     1681  0CAB               	rrf	(___fltol@f1+3)^(0+128),f
  5950     1682  0CAA               	rrf	(___fltol@f1+2)^(0+128),f
  5951     1683  0CA9               	rrf	(___fltol@f1+1)^(0+128),f
  5952     1684  0CA8               	rrf	___fltol@f1^(0+128),f
  5953     1685  3EFF               	addlw	-1
  5954     1686  1D03               	skipz
  5955     1687  2E7E               	goto	u3655
  5956     1688  3001               	movlw	1
  5957     1689  00AC               	movwf	??___fltol^(0+128)
  5958     168A  082C               	movf	??___fltol^(0+128),w
  5959     168B  1283               	bcf	3,5	;RP0=0, select bank0
  5960     168C  1303               	bcf	3,6	;RP1=0, select bank0
  5961     168D  07EE               	addwf	___fltol@exp1,f
  5962     168E  1D03               	btfss	3,2
  5963     168F  2E91               	goto	u3661
  5964     1690  2E92               	goto	u3660
  5965     1691                     u3661:
  5966     1691  2E7D               	goto	l2736
  5967     1692                     u3660:
  5968     1692  2EAE               	goto	l2746
  5969     1693                     l2738:
  5970     1693  3020               	movlw	32
  5971     1694  026E               	subwf	___fltol@exp1,w
  5972     1695  1C03               	skipc
  5973     1696  2E98               	goto	u3671
  5974     1697  2E99               	goto	u3670
  5975     1698                     u3671:
  5976     1698  2EA9               	goto	l474
  5977     1699                     u3670:
  5978     1699  2E40               	goto	l2716
  5979     169A                     l2744:
  5980     169A  3001               	movlw	1
  5981     169B  1683               	bsf	3,5	;RP0=1, select bank1
  5982     169C  1303               	bcf	3,6	;RP1=0, select bank1
  5983     169D  00AC               	movwf	??___fltol^(0+128)
  5984     169E                     u3685:
  5985     169E  1003               	clrc
  5986     169F  0DA8               	rlf	___fltol@f1^(0+128),f
  5987     16A0  0DA9               	rlf	(___fltol@f1+1)^(0+128),f
  5988     16A1  0DAA               	rlf	(___fltol@f1+2)^(0+128),f
  5989     16A2  0DAB               	rlf	(___fltol@f1+3)^(0+128),f
  5990     16A3  0BAC               	decfsz	??___fltol^(0+128),f
  5991     16A4  2E9E               	goto	u3685
  5992     16A5  3001               	movlw	1
  5993     16A6  1283               	bcf	3,5	;RP0=0, select bank0
  5994     16A7  1303               	bcf	3,6	;RP1=0, select bank0
  5995     16A8  02EE               	subwf	___fltol@exp1,f
  5996     16A9                     l474:
  5997     16A9  086E               	movf	___fltol@exp1,w
  5998     16AA  1D03               	btfss	3,2
  5999     16AB  2EAD               	goto	u3691
  6000     16AC  2EAE               	goto	u3690
  6001     16AD                     u3691:
  6002     16AD  2E9A               	goto	l2744
  6003     16AE                     u3690:
  6004     16AE                     l2746:
  6005     16AE  086D               	movf	___fltol@sign1,w
  6006     16AF  1903               	btfsc	3,2
  6007     16B0  2EB2               	goto	u3701
  6008     16B1  2EB3               	goto	u3700
  6009     16B2                     u3701:
  6010     16B2  2EC0               	goto	l477
  6011     16B3                     u3700:
  6012     16B3                     l2748:
  6013     16B3  1683               	bsf	3,5	;RP0=1, select bank1
  6014     16B4  1303               	bcf	3,6	;RP1=0, select bank1
  6015     16B5  09A8               	comf	___fltol@f1^(0+128),f
  6016     16B6  09A9               	comf	(___fltol@f1+1)^(0+128),f
  6017     16B7  09AA               	comf	(___fltol@f1+2)^(0+128),f
  6018     16B8  09AB               	comf	(___fltol@f1+3)^(0+128),f
  6019     16B9  0AA8               	incf	___fltol@f1^(0+128),f
  6020     16BA  1903               	skipnz
  6021     16BB  0AA9               	incf	(___fltol@f1+1)^(0+128),f
  6022     16BC  1903               	skipnz
  6023     16BD  0AAA               	incf	(___fltol@f1+2)^(0+128),f
  6024     16BE  1903               	skipnz
  6025     16BF  0AAB               	incf	(___fltol@f1+3)^(0+128),f
  6026     16C0                     l477:
  6027     16C0                     l467:
  6028     16C0  0008               	return
  6029     16C1                     __end_of___fltol:
  6030                           
  6031                           	psect	text15
  6032     1587                     __ptext15:	
  6033 ;; *************** function ___flsub *****************
  6034 ;; Defined at:
  6035 ;;		line 242 in file "C:\Program Files\Microchip\xc8\v2.40\pic\sources\c90\common\sprcadd.c"
  6036 ;; Parameters:    Size  Location     Type
  6037 ;;  a               4    0[BANK1 ] long 
  6038 ;;  b               4    4[BANK1 ] long 
  6039 ;; Auto vars:     Size  Location     Type
  6040 ;;		None
  6041 ;; Return value:  Size  Location     Type
  6042 ;;                  4    0[BANK1 ] long 
  6043 ;; Registers used:
  6044 ;;		wreg, status,2, status,0, btemp+1, pclath, cstack
  6045 ;; Tracked objects:
  6046 ;;		On entry : 0/0
  6047 ;;		On exit  : 0/0
  6048 ;;		Unchanged: 0/0
  6049 ;; Data sizes:     COMMON   BANK0   BANK1   BANK3   BANK2
  6050 ;;      Params:         0       0       8       0       0
  6051 ;;      Locals:         0       0       0       0       0
  6052 ;;      Temps:          0       0       0       0       0
  6053 ;;      Totals:         0       0       8       0       0
  6054 ;;Total ram usage:        8 bytes
  6055 ;; Hardware stack levels used: 1
  6056 ;; Hardware stack levels required when called: 1
  6057 ;; This function calls:
  6058 ;;		___fladd
  6059 ;; This function is called by:
  6060 ;;		_main
  6061 ;; This function uses a non-reentrant model
  6062 ;;
  6063                           
  6064     1587                     ___flsub:	
  6065                           ;psect for function ___flsub
  6066                           
  6067     1587                     l3522:	
  6068                           ;incstack = 0
  6069                           ; Regs used in ___flsub: [wreg+status,2+status,0+btemp+1+pclath+cstack]
  6070                           
  6071     1587  3080               	movlw	128
  6072     1588  1683               	bsf	3,5	;RP0=1, select bank1
  6073     1589  1303               	bcf	3,6	;RP1=0, select bank1
  6074     158A  06A3               	xorwf	(___flsub@a+3)^(0+128),f
  6075     158B                     l3524:
  6076     158B  0827               	movf	(___flsub@b+3)^(0+128),w
  6077     158C  1283               	bcf	3,5	;RP0=0, select bank0
  6078     158D  1303               	bcf	3,6	;RP1=0, select bank0
  6079     158E  00DC               	movwf	___fladd@b+3
  6080     158F  1683               	bsf	3,5	;RP0=1, select bank1
  6081     1590  1303               	bcf	3,6	;RP1=0, select bank1
  6082     1591  0826               	movf	(___flsub@b+2)^(0+128),w
  6083     1592  1283               	bcf	3,5	;RP0=0, select bank0
  6084     1593  1303               	bcf	3,6	;RP1=0, select bank0
  6085     1594  00DB               	movwf	___fladd@b+2
  6086     1595  1683               	bsf	3,5	;RP0=1, select bank1
  6087     1596  1303               	bcf	3,6	;RP1=0, select bank1
  6088     1597  0825               	movf	(___flsub@b+1)^(0+128),w
  6089     1598  1283               	bcf	3,5	;RP0=0, select bank0
  6090     1599  1303               	bcf	3,6	;RP1=0, select bank0
  6091     159A  00DA               	movwf	___fladd@b+1
  6092     159B  1683               	bsf	3,5	;RP0=1, select bank1
  6093     159C  1303               	bcf	3,6	;RP1=0, select bank1
  6094     159D  0824               	movf	___flsub@b^(0+128),w
  6095     159E  1283               	bcf	3,5	;RP0=0, select bank0
  6096     159F  1303               	bcf	3,6	;RP1=0, select bank0
  6097     15A0  00D9               	movwf	___fladd@b
  6098     15A1  1683               	bsf	3,5	;RP0=1, select bank1
  6099     15A2  1303               	bcf	3,6	;RP1=0, select bank1
  6100     15A3  0823               	movf	(___flsub@a+3)^(0+128),w
  6101     15A4  1283               	bcf	3,5	;RP0=0, select bank0
  6102     15A5  1303               	bcf	3,6	;RP1=0, select bank0
  6103     15A6  00E0               	movwf	___fladd@a+3
  6104     15A7  1683               	bsf	3,5	;RP0=1, select bank1
  6105     15A8  1303               	bcf	3,6	;RP1=0, select bank1
  6106     15A9  0822               	movf	(___flsub@a+2)^(0+128),w
  6107     15AA  1283               	bcf	3,5	;RP0=0, select bank0
  6108     15AB  1303               	bcf	3,6	;RP1=0, select bank0
  6109     15AC  00DF               	movwf	___fladd@a+2
  6110     15AD  1683               	bsf	3,5	;RP0=1, select bank1
  6111     15AE  1303               	bcf	3,6	;RP1=0, select bank1
  6112     15AF  0821               	movf	(___flsub@a+1)^(0+128),w
  6113     15B0  1283               	bcf	3,5	;RP0=0, select bank0
  6114     15B1  1303               	bcf	3,6	;RP1=0, select bank0
  6115     15B2  00DE               	movwf	___fladd@a+1
  6116     15B3  1683               	bsf	3,5	;RP0=1, select bank1
  6117     15B4  1303               	bcf	3,6	;RP1=0, select bank1
  6118     15B5  0820               	movf	___flsub@a^(0+128),w
  6119     15B6  1283               	bcf	3,5	;RP0=0, select bank0
  6120     15B7  1303               	bcf	3,6	;RP1=0, select bank0
  6121     15B8  00DD               	movwf	___fladd@a
  6122     15B9  120A  158A  25A8  160A  118A  	fcall	___fladd
  6123     15BE  1283               	bcf	3,5	;RP0=0, select bank0
  6124     15BF  1303               	bcf	3,6	;RP1=0, select bank0
  6125     15C0  085C               	movf	?___fladd+3,w
  6126     15C1  1683               	bsf	3,5	;RP0=1, select bank1
  6127     15C2  1303               	bcf	3,6	;RP1=0, select bank1
  6128     15C3  00A3               	movwf	(?___flsub+3)^(0+128)
  6129     15C4  1283               	bcf	3,5	;RP0=0, select bank0
  6130     15C5  1303               	bcf	3,6	;RP1=0, select bank0
  6131     15C6  085B               	movf	?___fladd+2,w
  6132     15C7  1683               	bsf	3,5	;RP0=1, select bank1
  6133     15C8  1303               	bcf	3,6	;RP1=0, select bank1
  6134     15C9  00A2               	movwf	(?___flsub+2)^(0+128)
  6135     15CA  1283               	bcf	3,5	;RP0=0, select bank0
  6136     15CB  1303               	bcf	3,6	;RP1=0, select bank0
  6137     15CC  085A               	movf	?___fladd+1,w
  6138     15CD  1683               	bsf	3,5	;RP0=1, select bank1
  6139     15CE  1303               	bcf	3,6	;RP1=0, select bank1
  6140     15CF  00A1               	movwf	(?___flsub+1)^(0+128)
  6141     15D0  1283               	bcf	3,5	;RP0=0, select bank0
  6142     15D1  1303               	bcf	3,6	;RP1=0, select bank0
  6143     15D2  0859               	movf	?___fladd,w
  6144     15D3  1683               	bsf	3,5	;RP0=1, select bank1
  6145     15D4  1303               	bcf	3,6	;RP1=0, select bank1
  6146     15D5  00A0               	movwf	?___flsub^(0+128)
  6147     15D6                     l620:
  6148     15D6  0008               	return
  6149     15D7                     __end_of___flsub:
  6150                           
  6151                           	psect	text16
  6152     0DA8                     __ptext16:	
  6153 ;; *************** function ___fladd *****************
  6154 ;; Defined at:
  6155 ;;		line 10 in file "C:\Program Files\Microchip\xc8\v2.40\pic\sources\c90\common\sprcadd.c"
  6156 ;; Parameters:    Size  Location     Type
  6157 ;;  b               4   57[BANK0 ] long 
  6158 ;;  a               4   61[BANK0 ] long 
  6159 ;; Auto vars:     Size  Location     Type
  6160 ;;  grs             1   76[BANK0 ] unsigned char 
  6161 ;;  bexp            1   75[BANK0 ] unsigned char 
  6162 ;;  aexp            1   74[BANK0 ] unsigned char 
  6163 ;;  signs           1   73[BANK0 ] unsigned char 
  6164 ;; Return value:  Size  Location     Type
  6165 ;;                  4   57[BANK0 ] unsigned char 
  6166 ;; Registers used:
  6167 ;;		wreg, status,2, status,0, btemp+1
  6168 ;; Tracked objects:
  6169 ;;		On entry : 0/0
  6170 ;;		On exit  : 0/0
  6171 ;;		Unchanged: 0/0
  6172 ;; Data sizes:     COMMON   BANK0   BANK1   BANK3   BANK2
  6173 ;;      Params:         0       8       0       0       0
  6174 ;;      Locals:         0       4       0       0       0
  6175 ;;      Temps:          0       8       0       0       0
  6176 ;;      Totals:         0      20       0       0       0
  6177 ;;Total ram usage:       20 bytes
  6178 ;; Hardware stack levels used: 1
  6179 ;; This function calls:
  6180 ;;		Nothing
  6181 ;; This function is called by:
  6182 ;;		_main
  6183 ;;		___flsub
  6184 ;;		_log
  6185 ;;		_eval_poly
  6186 ;; This function uses a non-reentrant model
  6187 ;;
  6188                           
  6189     0DA8                     ___fladd:	
  6190                           ;psect for function ___fladd
  6191                           
  6192     0DA8                     l3072:	
  6193                           ;incstack = 0
  6194                           ; Regs used in ___fladd: [wreg+status,2+status,0+btemp+1]
  6195                           
  6196     0DA8  1283               	bcf	3,5	;RP0=0, select bank0
  6197     0DA9  1303               	bcf	3,6	;RP1=0, select bank0
  6198     0DAA  085C               	movf	___fladd@b+3,w
  6199     0DAB  3980               	andlw	128
  6200     0DAC  00E9               	movwf	___fladd@signs
  6201     0DAD                     l3074:
  6202     0DAD  085C               	movf	___fladd@b+3,w
  6203     0DAE  00E1               	movwf	??___fladd
  6204     0DAF  0761               	addwf	??___fladd,w
  6205     0DB0  00EB               	movwf	___fladd@bexp
  6206     0DB1                     l3076:
  6207     0DB1  1FDB               	btfss	___fladd@b+2,7
  6208     0DB2  2DB4               	goto	u4151
  6209     0DB3  2DB5               	goto	u4150
  6210     0DB4                     u4151:
  6211     0DB4  2DB6               	goto	l3080
  6212     0DB5                     u4150:
  6213     0DB5                     l3078:
  6214     0DB5  146B               	bsf	___fladd@bexp,0
  6215     0DB6                     l3080:
  6216     0DB6  086B               	movf	___fladd@bexp,w
  6217     0DB7  1903               	btfsc	3,2
  6218     0DB8  2DBA               	goto	u4161
  6219     0DB9  2DBB               	goto	u4160
  6220     0DBA                     u4161:
  6221     0DBA  2DCB               	goto	l3090
  6222     0DBB                     u4160:
  6223     0DBB                     l3082:
  6224     0DBB  0A6B               	incf	___fladd@bexp,w
  6225     0DBC  1D03               	btfss	3,2
  6226     0DBD  2DBF               	goto	u4171
  6227     0DBE  2DC0               	goto	u4170
  6228     0DBF                     u4171:
  6229     0DBF  2DC8               	goto	l3086
  6230     0DC0                     u4170:
  6231     0DC0                     l3084:
  6232     0DC0  3000               	movlw	0
  6233     0DC1  00DC               	movwf	___fladd@b+3
  6234     0DC2  3000               	movlw	0
  6235     0DC3  00DB               	movwf	___fladd@b+2
  6236     0DC4  3000               	movlw	0
  6237     0DC5  00DA               	movwf	___fladd@b+1
  6238     0DC6  3000               	movlw	0
  6239     0DC7  00D9               	movwf	___fladd@b
  6240     0DC8                     l3086:
  6241     0DC8  17DB               	bsf	___fladd@b+2,7
  6242     0DC9                     l3088:
  6243     0DC9  01DC               	clrf	___fladd@b+3
  6244     0DCA  2DD3               	goto	l3092
  6245     0DCB                     l3090:
  6246     0DCB  3000               	movlw	0
  6247     0DCC  00DC               	movwf	___fladd@b+3
  6248     0DCD  3000               	movlw	0
  6249     0DCE  00DB               	movwf	___fladd@b+2
  6250     0DCF  3000               	movlw	0
  6251     0DD0  00DA               	movwf	___fladd@b+1
  6252     0DD1  3000               	movlw	0
  6253     0DD2  00D9               	movwf	___fladd@b
  6254     0DD3                     l3092:
  6255     0DD3  0860               	movf	___fladd@a+3,w
  6256     0DD4  3980               	andlw	128
  6257     0DD5  00EA               	movwf	___fladd@aexp
  6258     0DD6                     l3094:
  6259     0DD6  086A               	movf	___fladd@aexp,w
  6260     0DD7  0669               	xorwf	___fladd@signs,w
  6261     0DD8  1903               	skipnz
  6262     0DD9  2DDB               	goto	u4181
  6263     0DDA  2DDC               	goto	u4180
  6264     0DDB                     u4181:
  6265     0DDB  2DDD               	goto	l3098
  6266     0DDC                     u4180:
  6267     0DDC                     l3096:
  6268     0DDC  1769               	bsf	___fladd@signs,6
  6269     0DDD                     l3098:
  6270     0DDD  0860               	movf	___fladd@a+3,w
  6271     0DDE  00E1               	movwf	??___fladd
  6272     0DDF  0761               	addwf	??___fladd,w
  6273     0DE0  00EA               	movwf	___fladd@aexp
  6274     0DE1                     l3100:
  6275     0DE1  1FDF               	btfss	___fladd@a+2,7
  6276     0DE2  2DE4               	goto	u4191
  6277     0DE3  2DE5               	goto	u4190
  6278     0DE4                     u4191:
  6279     0DE4  2DE6               	goto	l3104
  6280     0DE5                     u4190:
  6281     0DE5                     l3102:
  6282     0DE5  146A               	bsf	___fladd@aexp,0
  6283     0DE6                     l3104:
  6284     0DE6  086A               	movf	___fladd@aexp,w
  6285     0DE7  1903               	btfsc	3,2
  6286     0DE8  2DEA               	goto	u4201
  6287     0DE9  2DEB               	goto	u4200
  6288     0DEA                     u4201:
  6289     0DEA  2DFB               	goto	l3114
  6290     0DEB                     u4200:
  6291     0DEB                     l3106:
  6292     0DEB  0A6A               	incf	___fladd@aexp,w
  6293     0DEC  1D03               	btfss	3,2
  6294     0DED  2DEF               	goto	u4211
  6295     0DEE  2DF0               	goto	u4210
  6296     0DEF                     u4211:
  6297     0DEF  2DF8               	goto	l3110
  6298     0DF0                     u4210:
  6299     0DF0                     l3108:
  6300     0DF0  3000               	movlw	0
  6301     0DF1  00E0               	movwf	___fladd@a+3
  6302     0DF2  3000               	movlw	0
  6303     0DF3  00DF               	movwf	___fladd@a+2
  6304     0DF4  3000               	movlw	0
  6305     0DF5  00DE               	movwf	___fladd@a+1
  6306     0DF6  3000               	movlw	0
  6307     0DF7  00DD               	movwf	___fladd@a
  6308     0DF8                     l3110:
  6309     0DF8  17DF               	bsf	___fladd@a+2,7
  6310     0DF9                     l3112:
  6311     0DF9  01E0               	clrf	___fladd@a+3
  6312     0DFA  2E03               	goto	l574
  6313     0DFB                     l3114:
  6314     0DFB  3000               	movlw	0
  6315     0DFC  00E0               	movwf	___fladd@a+3
  6316     0DFD  3000               	movlw	0
  6317     0DFE  00DF               	movwf	___fladd@a+2
  6318     0DFF  3000               	movlw	0
  6319     0E00  00DE               	movwf	___fladd@a+1
  6320     0E01  3000               	movlw	0
  6321     0E02  00DD               	movwf	___fladd@a
  6322     0E03                     l574:
  6323     0E03  086B               	movf	___fladd@bexp,w
  6324     0E04  026A               	subwf	___fladd@aexp,w
  6325     0E05  1803               	skipnc
  6326     0E06  2E08               	goto	u4221
  6327     0E07  2E09               	goto	u4220
  6328     0E08                     u4221:
  6329     0E08  2E2F               	goto	l3150
  6330     0E09                     u4220:
  6331     0E09                     l3116:
  6332     0E09  1F69               	btfss	___fladd@signs,6
  6333     0E0A  2E0C               	goto	u4231
  6334     0E0B  2E0D               	goto	u4230
  6335     0E0C                     u4231:
  6336     0E0C  2E11               	goto	l3120
  6337     0E0D                     u4230:
  6338     0E0D                     l3118:
  6339     0E0D  3080               	movlw	128
  6340     0E0E  00E1               	movwf	??___fladd
  6341     0E0F  0861               	movf	??___fladd,w
  6342     0E10  06E9               	xorwf	___fladd@signs,f
  6343     0E11                     l3120:
  6344     0E11  086B               	movf	___fladd@bexp,w
  6345     0E12  00EC               	movwf	___fladd@grs
  6346     0E13                     l3122:
  6347     0E13  086A               	movf	___fladd@aexp,w
  6348     0E14  00EB               	movwf	___fladd@bexp
  6349     0E15                     l3124:
  6350     0E15  086C               	movf	___fladd@grs,w
  6351     0E16  00EA               	movwf	___fladd@aexp
  6352     0E17                     l3126:
  6353     0E17  0859               	movf	___fladd@b,w
  6354     0E18  00EC               	movwf	___fladd@grs
  6355     0E19                     l3128:
  6356     0E19  085D               	movf	___fladd@a,w
  6357     0E1A  00D9               	movwf	___fladd@b
  6358     0E1B                     l3130:
  6359     0E1B  086C               	movf	___fladd@grs,w
  6360     0E1C  00DD               	movwf	___fladd@a
  6361     0E1D                     l3132:
  6362     0E1D  085A               	movf	___fladd@b+1,w
  6363     0E1E  00EC               	movwf	___fladd@grs
  6364     0E1F                     l3134:
  6365     0E1F  085E               	movf	___fladd@a+1,w
  6366     0E20  00DA               	movwf	___fladd@b+1
  6367     0E21                     l3136:
  6368     0E21  086C               	movf	___fladd@grs,w
  6369     0E22  00DE               	movwf	___fladd@a+1
  6370     0E23                     l3138:
  6371     0E23  085B               	movf	___fladd@b+2,w
  6372     0E24  00EC               	movwf	___fladd@grs
  6373     0E25                     l3140:
  6374     0E25  085F               	movf	___fladd@a+2,w
  6375     0E26  00DB               	movwf	___fladd@b+2
  6376     0E27                     l3142:
  6377     0E27  086C               	movf	___fladd@grs,w
  6378     0E28  00DF               	movwf	___fladd@a+2
  6379     0E29                     l3144:
  6380     0E29  085C               	movf	___fladd@b+3,w
  6381     0E2A  00EC               	movwf	___fladd@grs
  6382     0E2B                     l3146:
  6383     0E2B  0860               	movf	___fladd@a+3,w
  6384     0E2C  00DC               	movwf	___fladd@b+3
  6385     0E2D                     l3148:
  6386     0E2D  086C               	movf	___fladd@grs,w
  6387     0E2E  00E0               	movwf	___fladd@a+3
  6388     0E2F                     l3150:
  6389     0E2F  01EC               	clrf	___fladd@grs
  6390     0E30                     l3152:
  6391     0E30  086A               	movf	___fladd@aexp,w
  6392     0E31  00E1               	movwf	??___fladd
  6393     0E32  01E2               	clrf	??___fladd+1
  6394     0E33  0862               	movf	??___fladd+1,w
  6395     0E34  00E4               	movwf	??___fladd+3
  6396     0E35  086B               	movf	___fladd@bexp,w
  6397     0E36  0261               	subwf	??___fladd,w
  6398     0E37  00E3               	movwf	??___fladd+2
  6399     0E38  1C03               	skipc
  6400     0E39  03E4               	decf	??___fladd+3,f
  6401     0E3A  0864               	movf	??___fladd+3,w
  6402     0E3B  3A80               	xorlw	128
  6403     0E3C  00FF               	movwf	btemp+1
  6404     0E3D  3080               	movlw	128
  6405     0E3E  027F               	subwf	btemp+1,w
  6406     0E3F  1D03               	skipz
  6407     0E40  2E43               	goto	u4245
  6408     0E41  301A               	movlw	26
  6409     0E42  0263               	subwf	??___fladd+2,w
  6410     0E43                     u4245:
  6411     0E43  1C03               	skipc
  6412     0E44  2E46               	goto	u4241
  6413     0E45  2E47               	goto	u4240
  6414     0E46                     u4241:
  6415     0E46  2E7E               	goto	l3168
  6416     0E47                     u4240:
  6417     0E47                     l3154:
  6418     0E47  1283               	bcf	3,5	;RP0=0, select bank0
  6419     0E48  1303               	bcf	3,6	;RP1=0, select bank0
  6420     0E49  085C               	movf	___fladd@b+3,w
  6421     0E4A  045B               	iorwf	___fladd@b+2,w
  6422     0E4B  045A               	iorwf	___fladd@b+1,w
  6423     0E4C  0459               	iorwf	___fladd@b,w
  6424     0E4D  1D03               	skipz
  6425     0E4E  2E50               	goto	u4251
  6426     0E4F  2E52               	goto	u4250
  6427     0E50                     u4251:
  6428     0E50  3001               	movlw	1
  6429     0E51  2E53               	goto	u4260
  6430     0E52                     u4250:
  6431     0E52  3000               	movlw	0
  6432     0E53                     u4260:
  6433     0E53  00EC               	movwf	___fladd@grs
  6434     0E54  3000               	movlw	0
  6435     0E55  00DC               	movwf	___fladd@b+3
  6436     0E56  3000               	movlw	0
  6437     0E57  00DB               	movwf	___fladd@b+2
  6438     0E58  3000               	movlw	0
  6439     0E59  00DA               	movwf	___fladd@b+1
  6440     0E5A  3000               	movlw	0
  6441     0E5B  00D9               	movwf	___fladd@b
  6442     0E5C  086A               	movf	___fladd@aexp,w
  6443     0E5D  00EB               	movwf	___fladd@bexp
  6444     0E5E  2E86               	goto	l578
  6445     0E5F                     l580:
  6446     0E5F  1C6C               	btfss	___fladd@grs,0
  6447     0E60  2E62               	goto	u4271
  6448     0E61  2E63               	goto	u4270
  6449     0E62                     u4271:
  6450     0E62  2E6A               	goto	l3158
  6451     0E63                     u4270:
  6452     0E63                     l3156:
  6453     0E63  086C               	movf	___fladd@grs,w
  6454     0E64  00E1               	movwf	??___fladd
  6455     0E65  1003               	clrc
  6456     0E66  0C61               	rrf	??___fladd,w
  6457     0E67  3801               	iorlw	1
  6458     0E68  00EC               	movwf	___fladd@grs
  6459     0E69  2E6C               	goto	l3160
  6460     0E6A                     l3158:
  6461     0E6A  1003               	clrc
  6462     0E6B  0CEC               	rrf	___fladd@grs,f
  6463     0E6C                     l3160:
  6464     0E6C  1C59               	btfss	___fladd@b,0
  6465     0E6D  2E6F               	goto	u4281
  6466     0E6E  2E70               	goto	u4280
  6467     0E6F                     u4281:
  6468     0E6F  2E71               	goto	l3164
  6469     0E70                     u4280:
  6470     0E70                     l3162:
  6471     0E70  17EC               	bsf	___fladd@grs,7
  6472     0E71                     l3164:
  6473     0E71  3001               	movlw	1
  6474     0E72  00E1               	movwf	??___fladd
  6475     0E73                     u4295:
  6476     0E73  0D5C               	rlf	___fladd@b+3,w
  6477     0E74  0CDC               	rrf	___fladd@b+3,f
  6478     0E75  0CDB               	rrf	___fladd@b+2,f
  6479     0E76  0CDA               	rrf	___fladd@b+1,f
  6480     0E77  0CD9               	rrf	___fladd@b,f
  6481     0E78  0BE1               	decfsz	??___fladd& (0+127),f
  6482     0E79  2E73               	goto	u4295
  6483     0E7A                     l3166:
  6484     0E7A  3001               	movlw	1
  6485     0E7B  00E1               	movwf	??___fladd
  6486     0E7C  0861               	movf	??___fladd,w
  6487     0E7D  07EB               	addwf	___fladd@bexp,f
  6488     0E7E                     l3168:
  6489     0E7E  1283               	bcf	3,5	;RP0=0, select bank0
  6490     0E7F  1303               	bcf	3,6	;RP1=0, select bank0
  6491     0E80  086A               	movf	___fladd@aexp,w
  6492     0E81  026B               	subwf	___fladd@bexp,w
  6493     0E82  1C03               	skipc
  6494     0E83  2E85               	goto	u4301
  6495     0E84  2E86               	goto	u4300
  6496     0E85                     u4301:
  6497     0E85  2E5F               	goto	l580
  6498     0E86                     u4300:
  6499     0E86                     l578:
  6500     0E86  1B69               	btfsc	___fladd@signs,6
  6501     0E87  2E89               	goto	u4311
  6502     0E88  2E8A               	goto	u4310
  6503     0E89                     u4311:
  6504     0E89  2ED3               	goto	l3194
  6505     0E8A                     u4310:
  6506     0E8A                     l3170:
  6507     0E8A  086B               	movf	___fladd@bexp,w
  6508     0E8B  1D03               	btfss	3,2
  6509     0E8C  2E8E               	goto	u4321
  6510     0E8D  2E8F               	goto	u4320
  6511     0E8E                     u4321:
  6512     0E8E  2E98               	goto	l3176
  6513     0E8F                     u4320:
  6514     0E8F                     l3172:
  6515     0E8F  3000               	movlw	0
  6516     0E90  00DC               	movwf	?___fladd+3
  6517     0E91  3000               	movlw	0
  6518     0E92  00DB               	movwf	?___fladd+2
  6519     0E93  3000               	movlw	0
  6520     0E94  00DA               	movwf	?___fladd+1
  6521     0E95  3000               	movlw	0
  6522     0E96  00D9               	movwf	?___fladd
  6523     0E97  2FFF               	goto	l587
  6524     0E98                     l3176:
  6525     0E98  085D               	movf	___fladd@a,w
  6526     0E99  07D9               	addwf	___fladd@b,f
  6527     0E9A  085E               	movf	___fladd@a+1,w
  6528     0E9B  1103               	clrz
  6529     0E9C  1803               	skipnc
  6530     0E9D  3E01               	addlw	1
  6531     0E9E  1903               	skipnz
  6532     0E9F  2EA1               	goto	u4331
  6533     0EA0  07DA               	addwf	___fladd@b+1,f
  6534     0EA1                     u4331:
  6535     0EA1  085F               	movf	___fladd@a+2,w
  6536     0EA2  1103               	clrz
  6537     0EA3  1803               	skipnc
  6538     0EA4  3E01               	addlw	1
  6539     0EA5  1903               	skipnz
  6540     0EA6  2EA8               	goto	u4332
  6541     0EA7  07DB               	addwf	___fladd@b+2,f
  6542     0EA8                     u4332:
  6543     0EA8  0860               	movf	___fladd@a+3,w
  6544     0EA9  1103               	clrz
  6545     0EAA  1803               	skipnc
  6546     0EAB  3E01               	addlw	1
  6547     0EAC  1903               	skipnz
  6548     0EAD  2EAF               	goto	u4333
  6549     0EAE  07DC               	addwf	___fladd@b+3,f
  6550     0EAF                     u4333:
  6551     0EAF                     l3178:
  6552     0EAF  1C5C               	btfss	___fladd@b+3,0
  6553     0EB0  2EB2               	goto	u4341
  6554     0EB1  2EB3               	goto	u4340
  6555     0EB2                     u4341:
  6556     0EB2  2F87               	goto	l3228
  6557     0EB3                     u4340:
  6558     0EB3                     l3180:
  6559     0EB3  1C6C               	btfss	___fladd@grs,0
  6560     0EB4  2EB6               	goto	u4351
  6561     0EB5  2EB7               	goto	u4350
  6562     0EB6                     u4351:
  6563     0EB6  2EBE               	goto	l3184
  6564     0EB7                     u4350:
  6565     0EB7                     l3182:
  6566     0EB7  086C               	movf	___fladd@grs,w
  6567     0EB8  00E1               	movwf	??___fladd
  6568     0EB9  1003               	clrc
  6569     0EBA  0C61               	rrf	??___fladd,w
  6570     0EBB  3801               	iorlw	1
  6571     0EBC  00EC               	movwf	___fladd@grs
  6572     0EBD  2EC0               	goto	l3186
  6573     0EBE                     l3184:
  6574     0EBE  1003               	clrc
  6575     0EBF  0CEC               	rrf	___fladd@grs,f
  6576     0EC0                     l3186:
  6577     0EC0  1C59               	btfss	___fladd@b,0
  6578     0EC1  2EC3               	goto	u4361
  6579     0EC2  2EC4               	goto	u4360
  6580     0EC3                     u4361:
  6581     0EC3  2EC5               	goto	l3190
  6582     0EC4                     u4360:
  6583     0EC4                     l3188:
  6584     0EC4  17EC               	bsf	___fladd@grs,7
  6585     0EC5                     l3190:
  6586     0EC5  3001               	movlw	1
  6587     0EC6  00E1               	movwf	??___fladd
  6588     0EC7                     u4375:
  6589     0EC7  0D5C               	rlf	___fladd@b+3,w
  6590     0EC8  0CDC               	rrf	___fladd@b+3,f
  6591     0EC9  0CDB               	rrf	___fladd@b+2,f
  6592     0ECA  0CDA               	rrf	___fladd@b+1,f
  6593     0ECB  0CD9               	rrf	___fladd@b,f
  6594     0ECC  0BE1               	decfsz	??___fladd& (0+127),f
  6595     0ECD  2EC7               	goto	u4375
  6596     0ECE                     l3192:
  6597     0ECE  3001               	movlw	1
  6598     0ECF  00E1               	movwf	??___fladd
  6599     0ED0  0861               	movf	??___fladd,w
  6600     0ED1  07EB               	addwf	___fladd@bexp,f
  6601     0ED2  2F87               	goto	l3228
  6602     0ED3                     l3194:
  6603     0ED3  085C               	movf	___fladd@b+3,w
  6604     0ED4  3A80               	xorlw	128
  6605     0ED5  00FF               	movwf	btemp+1
  6606     0ED6  0860               	movf	___fladd@a+3,w
  6607     0ED7  3A80               	xorlw	128
  6608     0ED8  027F               	subwf	btemp+1,w
  6609     0ED9  1D03               	skipz
  6610     0EDA  2EE5               	goto	u4383
  6611     0EDB  085F               	movf	___fladd@a+2,w
  6612     0EDC  025B               	subwf	___fladd@b+2,w
  6613     0EDD  1D03               	skipz
  6614     0EDE  2EE5               	goto	u4383
  6615     0EDF  085E               	movf	___fladd@a+1,w
  6616     0EE0  025A               	subwf	___fladd@b+1,w
  6617     0EE1  1D03               	skipz
  6618     0EE2  2EE5               	goto	u4383
  6619     0EE3  085D               	movf	___fladd@a,w
  6620     0EE4  0259               	subwf	___fladd@b,w
  6621     0EE5                     u4383:
  6622     0EE5  1803               	skipnc
  6623     0EE6  2EE8               	goto	u4381
  6624     0EE7  2EE9               	goto	u4380
  6625     0EE8                     u4381:
  6626     0EE8  2F41               	goto	l3204
  6627     0EE9                     u4380:
  6628     0EE9                     l3196:
  6629     0EE9  30FF               	movlw	255
  6630     0EEA  00E1               	movwf	??___fladd
  6631     0EEB  30FF               	movlw	255
  6632     0EEC  00E2               	movwf	??___fladd+1
  6633     0EED  30FF               	movlw	255
  6634     0EEE  00E3               	movwf	??___fladd+2
  6635     0EEF  30FF               	movlw	255
  6636     0EF0  00E4               	movwf	??___fladd+3
  6637     0EF1  085D               	movf	___fladd@a,w
  6638     0EF2  00E5               	movwf	??___fladd+4
  6639     0EF3  085E               	movf	___fladd@a+1,w
  6640     0EF4  00E6               	movwf	??___fladd+5
  6641     0EF5  085F               	movf	___fladd@a+2,w
  6642     0EF6  00E7               	movwf	??___fladd+6
  6643     0EF7  0860               	movf	___fladd@a+3,w
  6644     0EF8  00E8               	movwf	??___fladd+7
  6645     0EF9  0859               	movf	___fladd@b,w
  6646     0EFA  02E5               	subwf	??___fladd+4,f
  6647     0EFB  085A               	movf	___fladd@b+1,w
  6648     0EFC  1C03               	skipc
  6649     0EFD  0F5A               	incfsz	___fladd@b+1,w
  6650     0EFE  2F00               	goto	u4391
  6651     0EFF  2F01               	goto	u4392
  6652     0F00                     u4391:
  6653     0F00  02E6               	subwf	??___fladd+5,f
  6654     0F01                     u4392:
  6655     0F01  085B               	movf	___fladd@b+2,w
  6656     0F02  1C03               	skipc
  6657     0F03  0F5B               	incfsz	___fladd@b+2,w
  6658     0F04  2F06               	goto	u4393
  6659     0F05  2F07               	goto	u4394
  6660     0F06                     u4393:
  6661     0F06  02E7               	subwf	??___fladd+6,f
  6662     0F07                     u4394:
  6663     0F07  085C               	movf	___fladd@b+3,w
  6664     0F08  1C03               	skipc
  6665     0F09  0F5C               	incfsz	___fladd@b+3,w
  6666     0F0A  2F0C               	goto	u4395
  6667     0F0B  2F0D               	goto	u4396
  6668     0F0C                     u4395:
  6669     0F0C  02E8               	subwf	??___fladd+7,f
  6670     0F0D                     u4396:
  6671     0F0D  0865               	movf	??___fladd+4,w
  6672     0F0E  07E1               	addwf	??___fladd,f
  6673     0F0F  0866               	movf	??___fladd+5,w
  6674     0F10  1803               	skipnc
  6675     0F11  0F66               	incfsz	??___fladd+5,w
  6676     0F12  2F14               	goto	u4400
  6677     0F13  2F15               	goto	u4401
  6678     0F14                     u4400:
  6679     0F14  07E2               	addwf	??___fladd+1,f
  6680     0F15                     u4401:
  6681     0F15  0867               	movf	??___fladd+6,w
  6682     0F16  1803               	skipnc
  6683     0F17  0F67               	incfsz	??___fladd+6,w
  6684     0F18  2F1A               	goto	u4402
  6685     0F19  2F1B               	goto	u4403
  6686     0F1A                     u4402:
  6687     0F1A  07E3               	addwf	??___fladd+2,f
  6688     0F1B                     u4403:
  6689     0F1B  0868               	movf	??___fladd+7,w
  6690     0F1C  1803               	skipnc
  6691     0F1D  0A68               	incf	??___fladd+7,w
  6692     0F1E  07E4               	addwf	??___fladd+3,f
  6693     0F1F  0864               	movf	??___fladd+3,w
  6694     0F20  00DC               	movwf	___fladd@b+3
  6695     0F21  0863               	movf	??___fladd+2,w
  6696     0F22  00DB               	movwf	___fladd@b+2
  6697     0F23  0862               	movf	??___fladd+1,w
  6698     0F24  00DA               	movwf	___fladd@b+1
  6699     0F25  0861               	movf	??___fladd,w
  6700     0F26  00D9               	movwf	___fladd@b
  6701     0F27                     l3198:
  6702     0F27  3080               	movlw	128
  6703     0F28  00E1               	movwf	??___fladd
  6704     0F29  0861               	movf	??___fladd,w
  6705     0F2A  06E9               	xorwf	___fladd@signs,f
  6706     0F2B  09EC               	comf	___fladd@grs,f
  6707     0F2C  0AEC               	incf	___fladd@grs,f
  6708     0F2D                     l3200:
  6709     0F2D  086C               	movf	___fladd@grs,w
  6710     0F2E  1D03               	btfss	3,2
  6711     0F2F  2F31               	goto	u4411
  6712     0F30  2F32               	goto	u4410
  6713     0F31                     u4411:
  6714     0F31  2F4F               	goto	l595
  6715     0F32                     u4410:
  6716     0F32                     l3202:
  6717     0F32  3001               	movlw	1
  6718     0F33  07D9               	addwf	___fladd@b,f
  6719     0F34  3000               	movlw	0
  6720     0F35  1803               	skipnc
  6721     0F36  3001               	movlw	1
  6722     0F37  07DA               	addwf	___fladd@b+1,f
  6723     0F38  3000               	movlw	0
  6724     0F39  1803               	skipnc
  6725     0F3A  3001               	movlw	1
  6726     0F3B  07DB               	addwf	___fladd@b+2,f
  6727     0F3C  3000               	movlw	0
  6728     0F3D  1803               	skipnc
  6729     0F3E  3001               	movlw	1
  6730     0F3F  07DC               	addwf	___fladd@b+3,f
  6731     0F40  2F4F               	goto	l595
  6732     0F41                     l3204:
  6733     0F41  085D               	movf	___fladd@a,w
  6734     0F42  02D9               	subwf	___fladd@b,f
  6735     0F43  085E               	movf	___fladd@a+1,w
  6736     0F44  1C03               	skipc
  6737     0F45  0F5E               	incfsz	___fladd@a+1,w
  6738     0F46  02DA               	subwf	___fladd@b+1,f
  6739     0F47  085F               	movf	___fladd@a+2,w
  6740     0F48  1C03               	skipc
  6741     0F49  0F5F               	incfsz	___fladd@a+2,w
  6742     0F4A  02DB               	subwf	___fladd@b+2,f
  6743     0F4B  0860               	movf	___fladd@a+3,w
  6744     0F4C  1C03               	skipc
  6745     0F4D  0F60               	incfsz	___fladd@a+3,w
  6746     0F4E  02DC               	subwf	___fladd@b+3,f
  6747     0F4F                     l595:
  6748     0F4F  085C               	movf	___fladd@b+3,w
  6749     0F50  045B               	iorwf	___fladd@b+2,w
  6750     0F51  045A               	iorwf	___fladd@b+1,w
  6751     0F52  0459               	iorwf	___fladd@b,w
  6752     0F53  1D03               	skipz
  6753     0F54  2F56               	goto	u4421
  6754     0F55  2F57               	goto	u4420
  6755     0F56                     u4421:
  6756     0F56  2F83               	goto	l3226
  6757     0F57                     u4420:
  6758     0F57                     l3206:
  6759     0F57  086C               	movf	___fladd@grs,w
  6760     0F58  1D03               	btfss	3,2
  6761     0F59  2F5B               	goto	u4431
  6762     0F5A  2F5C               	goto	u4430
  6763     0F5B                     u4431:
  6764     0F5B  2F83               	goto	l3226
  6765     0F5C                     u4430:
  6766     0F5C                     l3208:
  6767     0F5C  3000               	movlw	0
  6768     0F5D  00DC               	movwf	?___fladd+3
  6769     0F5E  3000               	movlw	0
  6770     0F5F  00DB               	movwf	?___fladd+2
  6771     0F60  3000               	movlw	0
  6772     0F61  00DA               	movwf	?___fladd+1
  6773     0F62  3000               	movlw	0
  6774     0F63  00D9               	movwf	?___fladd
  6775     0F64  2FFF               	goto	l587
  6776     0F65                     l3212:
  6777     0F65  3001               	movlw	1
  6778     0F66  00E1               	movwf	??___fladd
  6779     0F67                     u4445:
  6780     0F67  1003               	clrc
  6781     0F68  0DD9               	rlf	___fladd@b,f
  6782     0F69  0DDA               	rlf	___fladd@b+1,f
  6783     0F6A  0DDB               	rlf	___fladd@b+2,f
  6784     0F6B  0DDC               	rlf	___fladd@b+3,f
  6785     0F6C  0BE1               	decfsz	??___fladd,f
  6786     0F6D  2F67               	goto	u4445
  6787     0F6E                     l3214:
  6788     0F6E  1FEC               	btfss	___fladd@grs,7
  6789     0F6F  2F71               	goto	u4451
  6790     0F70  2F72               	goto	u4450
  6791     0F71                     u4451:
  6792     0F71  2F73               	goto	l599
  6793     0F72                     u4450:
  6794     0F72                     l3216:
  6795     0F72  1459               	bsf	___fladd@b,0
  6796     0F73                     l599:
  6797     0F73  1C6C               	btfss	___fladd@grs,0
  6798     0F74  2F76               	goto	u4461
  6799     0F75  2F77               	goto	u4460
  6800     0F76                     u4461:
  6801     0F76  2F7A               	goto	l3220
  6802     0F77                     u4460:
  6803     0F77                     l3218:
  6804     0F77  1403               	setc
  6805     0F78  0DEC               	rlf	___fladd@grs,f
  6806     0F79  2F7C               	goto	l3222
  6807     0F7A                     l3220:
  6808     0F7A  1003               	clrc
  6809     0F7B  0DEC               	rlf	___fladd@grs,f
  6810     0F7C                     l3222:
  6811     0F7C  086B               	movf	___fladd@bexp,w
  6812     0F7D  1903               	btfsc	3,2
  6813     0F7E  2F80               	goto	u4471
  6814     0F7F  2F81               	goto	u4470
  6815     0F80                     u4471:
  6816     0F80  2F83               	goto	l3226
  6817     0F81                     u4470:
  6818     0F81                     l3224:
  6819     0F81  3001               	movlw	1
  6820     0F82  02EB               	subwf	___fladd@bexp,f
  6821     0F83                     l3226:
  6822     0F83  1FDB               	btfss	___fladd@b+2,7
  6823     0F84  2F86               	goto	u4481
  6824     0F85  2F87               	goto	u4480
  6825     0F86                     u4481:
  6826     0F86  2F65               	goto	l3212
  6827     0F87                     u4480:
  6828     0F87                     l3228:
  6829     0F87  01EA               	clrf	___fladd@aexp
  6830     0F88                     l3230:
  6831     0F88  1FEC               	btfss	___fladd@grs,7
  6832     0F89  2F8B               	goto	u4491
  6833     0F8A  2F8C               	goto	u4490
  6834     0F8B                     u4491:
  6835     0F8B  2F9A               	goto	l3238
  6836     0F8C                     u4490:
  6837     0F8C                     l3232:
  6838     0F8C  086C               	movf	___fladd@grs,w
  6839     0F8D  397F               	andlw	127
  6840     0F8E  1903               	btfsc	3,2
  6841     0F8F  2F91               	goto	u4501
  6842     0F90  2F92               	goto	u4500
  6843     0F91                     u4501:
  6844     0F91  2F95               	goto	l605
  6845     0F92                     u4500:
  6846     0F92                     l3234:
  6847     0F92  01EA               	clrf	___fladd@aexp
  6848     0F93  0AEA               	incf	___fladd@aexp,f
  6849     0F94  2F9A               	goto	l3238
  6850     0F95                     l605:
  6851     0F95  1C59               	btfss	___fladd@b,0
  6852     0F96  2F98               	goto	u4511
  6853     0F97  2F99               	goto	u4510
  6854     0F98                     u4511:
  6855     0F98  2F9A               	goto	l3238
  6856     0F99                     u4510:
  6857     0F99  2F92               	goto	l3234
  6858     0F9A                     l3238:
  6859     0F9A  086A               	movf	___fladd@aexp,w
  6860     0F9B  1903               	btfsc	3,2
  6861     0F9C  2F9E               	goto	u4521
  6862     0F9D  2F9F               	goto	u4520
  6863     0F9E                     u4521:
  6864     0F9E  2FD3               	goto	l608
  6865     0F9F                     u4520:
  6866     0F9F                     l3240:
  6867     0F9F  3001               	movlw	1
  6868     0FA0  07D9               	addwf	___fladd@b,f
  6869     0FA1  3000               	movlw	0
  6870     0FA2  1803               	skipnc
  6871     0FA3  3001               	movlw	1
  6872     0FA4  07DA               	addwf	___fladd@b+1,f
  6873     0FA5  3000               	movlw	0
  6874     0FA6  1803               	skipnc
  6875     0FA7  3001               	movlw	1
  6876     0FA8  07DB               	addwf	___fladd@b+2,f
  6877     0FA9  3000               	movlw	0
  6878     0FAA  1803               	skipnc
  6879     0FAB  3001               	movlw	1
  6880     0FAC  07DC               	addwf	___fladd@b+3,f
  6881     0FAD                     l3242:
  6882     0FAD  1C5C               	btfss	___fladd@b+3,0
  6883     0FAE  2FB0               	goto	u4531
  6884     0FAF  2FB1               	goto	u4530
  6885     0FB0                     u4531:
  6886     0FB0  2FD3               	goto	l608
  6887     0FB1                     u4530:
  6888     0FB1                     l3244:
  6889     0FB1  0859               	movf	___fladd@b,w
  6890     0FB2  00E1               	movwf	??___fladd
  6891     0FB3  085A               	movf	___fladd@b+1,w
  6892     0FB4  00E2               	movwf	??___fladd+1
  6893     0FB5  085B               	movf	___fladd@b+2,w
  6894     0FB6  00E3               	movwf	??___fladd+2
  6895     0FB7  085C               	movf	___fladd@b+3,w
  6896     0FB8  00E4               	movwf	??___fladd+3
  6897     0FB9  3001               	movlw	1
  6898     0FBA  00E5               	movwf	??___fladd+4
  6899     0FBB                     u4545:
  6900     0FBB  0D64               	rlf	??___fladd+3,w
  6901     0FBC  0CE4               	rrf	??___fladd+3,f
  6902     0FBD  0CE3               	rrf	??___fladd+2,f
  6903     0FBE  0CE2               	rrf	??___fladd+1,f
  6904     0FBF  0CE1               	rrf	??___fladd,f
  6905     0FC0                     u4540:
  6906     0FC0  0BE5               	decfsz	??___fladd+4,f
  6907     0FC1  2FBB               	goto	u4545
  6908     0FC2  0864               	movf	??___fladd+3,w
  6909     0FC3  00DC               	movwf	___fladd@b+3
  6910     0FC4  0863               	movf	??___fladd+2,w
  6911     0FC5  00DB               	movwf	___fladd@b+2
  6912     0FC6  0862               	movf	??___fladd+1,w
  6913     0FC7  00DA               	movwf	___fladd@b+1
  6914     0FC8  0861               	movf	??___fladd,w
  6915     0FC9  00D9               	movwf	___fladd@b
  6916     0FCA  0A6B               	incf	___fladd@bexp,w
  6917     0FCB  1903               	btfsc	3,2
  6918     0FCC  2FCE               	goto	u4551
  6919     0FCD  2FCF               	goto	u4550
  6920     0FCE                     u4551:
  6921     0FCE  2FD3               	goto	l608
  6922     0FCF                     u4550:
  6923     0FCF                     l3246:
  6924     0FCF  3001               	movlw	1
  6925     0FD0  00E1               	movwf	??___fladd
  6926     0FD1  0861               	movf	??___fladd,w
  6927     0FD2  07EB               	addwf	___fladd@bexp,f
  6928     0FD3                     l608:
  6929     0FD3  0A6B               	incf	___fladd@bexp,w
  6930     0FD4  1903               	btfsc	3,2
  6931     0FD5  2FD7               	goto	u4561
  6932     0FD6  2FD8               	goto	u4560
  6933     0FD7                     u4561:
  6934     0FD7  2FDD               	goto	l3250
  6935     0FD8                     u4560:
  6936     0FD8                     l3248:
  6937     0FD8  086B               	movf	___fladd@bexp,w
  6938     0FD9  1D03               	btfss	3,2
  6939     0FDA  2FDC               	goto	u4571
  6940     0FDB  2FDD               	goto	u4570
  6941     0FDC                     u4571:
  6942     0FDC  2FEB               	goto	l3256
  6943     0FDD                     u4570:
  6944     0FDD                     l3250:
  6945     0FDD  3000               	movlw	0
  6946     0FDE  00DC               	movwf	___fladd@b+3
  6947     0FDF  3000               	movlw	0
  6948     0FE0  00DB               	movwf	___fladd@b+2
  6949     0FE1  3000               	movlw	0
  6950     0FE2  00DA               	movwf	___fladd@b+1
  6951     0FE3  3000               	movlw	0
  6952     0FE4  00D9               	movwf	___fladd@b
  6953     0FE5                     l3252:
  6954     0FE5  086B               	movf	___fladd@bexp,w
  6955     0FE6  1D03               	btfss	3,2
  6956     0FE7  2FE9               	goto	u4581
  6957     0FE8  2FEA               	goto	u4580
  6958     0FE9                     u4581:
  6959     0FE9  2FEB               	goto	l3256
  6960     0FEA                     u4580:
  6961     0FEA                     l3254:
  6962     0FEA  01E9               	clrf	___fladd@signs
  6963     0FEB                     l3256:
  6964     0FEB  1C6B               	btfss	___fladd@bexp,0
  6965     0FEC  2FEE               	goto	u4591
  6966     0FED  2FEF               	goto	u4590
  6967     0FEE                     u4591:
  6968     0FEE  2FF1               	goto	l3260
  6969     0FEF                     u4590:
  6970     0FEF                     l3258:
  6971     0FEF  17DB               	bsf	___fladd@b+2,7
  6972     0FF0  2FF5               	goto	l616
  6973     0FF1                     l3260:
  6974     0FF1  307F               	movlw	127
  6975     0FF2  00E1               	movwf	??___fladd
  6976     0FF3  0861               	movf	??___fladd,w
  6977     0FF4  05DB               	andwf	___fladd@b+2,f
  6978     0FF5                     l616:
  6979     0FF5  086B               	movf	___fladd@bexp,w
  6980     0FF6  00E1               	movwf	??___fladd
  6981     0FF7  1003               	clrc
  6982     0FF8  0C61               	rrf	??___fladd,w
  6983     0FF9  00DC               	movwf	___fladd@b+3
  6984     0FFA                     l3262:
  6985     0FFA  1FE9               	btfss	___fladd@signs,7
  6986     0FFB  2FFD               	goto	u4601
  6987     0FFC  2FFE               	goto	u4600
  6988     0FFD                     u4601:
  6989     0FFD  2FFF               	goto	l617
  6990     0FFE                     u4600:
  6991     0FFE                     l3264:
  6992     0FFE  17DC               	bsf	___fladd@b+3,7
  6993     0FFF                     l617:
  6994     0FFF                     l587:
  6995     0FFF  0008               	return
  6996     1000                     __end_of___fladd:
  6997                           
  6998                           	psect	text17
  6999     0BD5                     __ptext17:	
  7000 ;; *************** function ___fldiv *****************
  7001 ;; Defined at:
  7002 ;;		line 8 in file "C:\Program Files\Microchip\xc8\v2.40\pic\sources\c90\common\sprcdiv.c"
  7003 ;; Parameters:    Size  Location     Type
  7004 ;;  a               4   31[BANK0 ] unsigned char 
  7005 ;;  b               4   35[BANK0 ] unsigned char 
  7006 ;; Auto vars:     Size  Location     Type
  7007 ;;  grs             4   51[BANK0 ] unsigned long 
  7008 ;;  rem             4   44[BANK0 ] unsigned long 
  7009 ;;  new_exp         2   49[BANK0 ] int 
  7010 ;;  aexp            1   56[BANK0 ] unsigned char 
  7011 ;;  bexp            1   55[BANK0 ] unsigned char 
  7012 ;;  sign            1   48[BANK0 ] unsigned char 
  7013 ;; Return value:  Size  Location     Type
  7014 ;;                  4   31[BANK0 ] unsigned char 
  7015 ;; Registers used:
  7016 ;;		wreg, status,2, status,0, btemp+1
  7017 ;; Tracked objects:
  7018 ;;		On entry : 0/0
  7019 ;;		On exit  : 0/0
  7020 ;;		Unchanged: 0/0
  7021 ;; Data sizes:     COMMON   BANK0   BANK1   BANK3   BANK2
  7022 ;;      Params:         0       8       0       0       0
  7023 ;;      Locals:         0      13       0       0       0
  7024 ;;      Temps:          0       5       0       0       0
  7025 ;;      Totals:         0      26       0       0       0
  7026 ;;Total ram usage:       26 bytes
  7027 ;; Hardware stack levels used: 1
  7028 ;; This function calls:
  7029 ;;		Nothing
  7030 ;; This function is called by:
  7031 ;;		_main
  7032 ;; This function uses a non-reentrant model
  7033 ;;
  7034                           
  7035     0BD5                     ___fldiv:	
  7036                           ;psect for function ___fldiv
  7037                           
  7038     0BD5                     l2756:	
  7039                           ;incstack = 0
  7040                           ; Regs used in ___fldiv: [wreg+status,2+status,0+btemp+1]
  7041                           
  7042     0BD5  1283               	bcf	3,5	;RP0=0, select bank0
  7043     0BD6  1303               	bcf	3,6	;RP1=0, select bank0
  7044     0BD7  0846               	movf	___fldiv@b+3,w
  7045     0BD8  3980               	andlw	128
  7046     0BD9  00D0               	movwf	___fldiv@sign
  7047     0BDA                     l2758:
  7048     0BDA  0846               	movf	___fldiv@b+3,w
  7049     0BDB  00C7               	movwf	??___fldiv
  7050     0BDC  0747               	addwf	??___fldiv,w
  7051     0BDD  00D7               	movwf	___fldiv@bexp
  7052     0BDE                     l2760:
  7053     0BDE  1FC5               	btfss	___fldiv@b+2,7
  7054     0BDF  2BE1               	goto	u3711
  7055     0BE0  2BE2               	goto	u3710
  7056     0BE1                     u3711:
  7057     0BE1  2BE3               	goto	l2764
  7058     0BE2                     u3710:
  7059     0BE2                     l2762:
  7060     0BE2  1457               	bsf	___fldiv@bexp,0
  7061     0BE3                     l2764:
  7062     0BE3  0857               	movf	___fldiv@bexp,w
  7063     0BE4  1903               	btfsc	3,2
  7064     0BE5  2BE7               	goto	u3721
  7065     0BE6  2BE8               	goto	u3720
  7066     0BE7                     u3721:
  7067     0BE7  2BF8               	goto	l2774
  7068     0BE8                     u3720:
  7069     0BE8                     l2766:
  7070     0BE8  0A57               	incf	___fldiv@bexp,w
  7071     0BE9  1D03               	btfss	3,2
  7072     0BEA  2BEC               	goto	u3731
  7073     0BEB  2BED               	goto	u3730
  7074     0BEC                     u3731:
  7075     0BEC  2BF5               	goto	l2770
  7076     0BED                     u3730:
  7077     0BED                     l2768:
  7078     0BED  3000               	movlw	0
  7079     0BEE  00C6               	movwf	___fldiv@b+3
  7080     0BEF  3000               	movlw	0
  7081     0BF0  00C5               	movwf	___fldiv@b+2
  7082     0BF1  3000               	movlw	0
  7083     0BF2  00C4               	movwf	___fldiv@b+1
  7084     0BF3  3000               	movlw	0
  7085     0BF4  00C3               	movwf	___fldiv@b
  7086     0BF5                     l2770:
  7087     0BF5  17C5               	bsf	___fldiv@b+2,7
  7088     0BF6                     l2772:
  7089     0BF6  01C6               	clrf	___fldiv@b+3
  7090     0BF7  2C00               	goto	l2776
  7091     0BF8                     l2774:
  7092     0BF8  3000               	movlw	0
  7093     0BF9  00C6               	movwf	___fldiv@b+3
  7094     0BFA  3000               	movlw	0
  7095     0BFB  00C5               	movwf	___fldiv@b+2
  7096     0BFC  3000               	movlw	0
  7097     0BFD  00C4               	movwf	___fldiv@b+1
  7098     0BFE  3000               	movlw	0
  7099     0BFF  00C3               	movwf	___fldiv@b
  7100     0C00                     l2776:
  7101     0C00  0842               	movf	___fldiv@a+3,w
  7102     0C01  3980               	andlw	128
  7103     0C02  00C7               	movwf	??___fldiv
  7104     0C03  0847               	movf	??___fldiv,w
  7105     0C04  06D0               	xorwf	___fldiv@sign,f
  7106     0C05                     l2778:
  7107     0C05  0842               	movf	___fldiv@a+3,w
  7108     0C06  00C7               	movwf	??___fldiv
  7109     0C07  0747               	addwf	??___fldiv,w
  7110     0C08  00D8               	movwf	___fldiv@aexp
  7111     0C09                     l2780:
  7112     0C09  1FC1               	btfss	___fldiv@a+2,7
  7113     0C0A  2C0C               	goto	u3741
  7114     0C0B  2C0D               	goto	u3740
  7115     0C0C                     u3741:
  7116     0C0C  2C0E               	goto	l2784
  7117     0C0D                     u3740:
  7118     0C0D                     l2782:
  7119     0C0D  1458               	bsf	___fldiv@aexp,0
  7120     0C0E                     l2784:
  7121     0C0E  0858               	movf	___fldiv@aexp,w
  7122     0C0F  1903               	btfsc	3,2
  7123     0C10  2C12               	goto	u3751
  7124     0C11  2C13               	goto	u3750
  7125     0C12                     u3751:
  7126     0C12  2C23               	goto	l2794
  7127     0C13                     u3750:
  7128     0C13                     l2786:
  7129     0C13  0A58               	incf	___fldiv@aexp,w
  7130     0C14  1D03               	btfss	3,2
  7131     0C15  2C17               	goto	u3761
  7132     0C16  2C18               	goto	u3760
  7133     0C17                     u3761:
  7134     0C17  2C20               	goto	l2790
  7135     0C18                     u3760:
  7136     0C18                     l2788:
  7137     0C18  3000               	movlw	0
  7138     0C19  00C2               	movwf	___fldiv@a+3
  7139     0C1A  3000               	movlw	0
  7140     0C1B  00C1               	movwf	___fldiv@a+2
  7141     0C1C  3000               	movlw	0
  7142     0C1D  00C0               	movwf	___fldiv@a+1
  7143     0C1E  3000               	movlw	0
  7144     0C1F  00BF               	movwf	___fldiv@a
  7145     0C20                     l2790:
  7146     0C20  17C1               	bsf	___fldiv@a+2,7
  7147     0C21                     l2792:
  7148     0C21  01C2               	clrf	___fldiv@a+3
  7149     0C22  2C2B               	goto	l630
  7150     0C23                     l2794:
  7151     0C23  3000               	movlw	0
  7152     0C24  00C2               	movwf	___fldiv@a+3
  7153     0C25  3000               	movlw	0
  7154     0C26  00C1               	movwf	___fldiv@a+2
  7155     0C27  3000               	movlw	0
  7156     0C28  00C0               	movwf	___fldiv@a+1
  7157     0C29  3000               	movlw	0
  7158     0C2A  00BF               	movwf	___fldiv@a
  7159     0C2B                     l630:
  7160     0C2B  0842               	movf	___fldiv@a+3,w
  7161     0C2C  0441               	iorwf	___fldiv@a+2,w
  7162     0C2D  0440               	iorwf	___fldiv@a+1,w
  7163     0C2E  043F               	iorwf	___fldiv@a,w
  7164     0C2F  1D03               	skipz
  7165     0C30  2C32               	goto	u3771
  7166     0C31  2C33               	goto	u3770
  7167     0C32                     u3771:
  7168     0C32  2C4C               	goto	l2804
  7169     0C33                     u3770:
  7170     0C33                     l2796:
  7171     0C33  3000               	movlw	0
  7172     0C34  00C6               	movwf	___fldiv@b+3
  7173     0C35  3000               	movlw	0
  7174     0C36  00C5               	movwf	___fldiv@b+2
  7175     0C37  3000               	movlw	0
  7176     0C38  00C4               	movwf	___fldiv@b+1
  7177     0C39  3000               	movlw	0
  7178     0C3A  00C3               	movwf	___fldiv@b
  7179     0C3B  3080               	movlw	128
  7180     0C3C  04C5               	iorwf	___fldiv@b+2,f
  7181     0C3D  307F               	movlw	127
  7182     0C3E  04C6               	iorwf	___fldiv@b+3,f
  7183     0C3F                     l2798:
  7184     0C3F  0850               	movf	___fldiv@sign,w
  7185     0C40  00C7               	movwf	??___fldiv
  7186     0C41  0847               	movf	??___fldiv,w
  7187     0C42  04C6               	iorwf	___fldiv@b+3,f
  7188     0C43                     l2800:
  7189     0C43  0846               	movf	___fldiv@b+3,w
  7190     0C44  00C2               	movwf	?___fldiv+3
  7191     0C45  0845               	movf	___fldiv@b+2,w
  7192     0C46  00C1               	movwf	?___fldiv+2
  7193     0C47  0844               	movf	___fldiv@b+1,w
  7194     0C48  00C0               	movwf	?___fldiv+1
  7195     0C49  0843               	movf	___fldiv@b,w
  7196     0C4A  00BF               	movwf	?___fldiv
  7197     0C4B  2DA7               	goto	l632
  7198     0C4C                     l2804:
  7199     0C4C  0857               	movf	___fldiv@bexp,w
  7200     0C4D  1D03               	btfss	3,2
  7201     0C4E  2C50               	goto	u3781
  7202     0C4F  2C51               	goto	u3780
  7203     0C50                     u3781:
  7204     0C50  2C5A               	goto	l2810
  7205     0C51                     u3780:
  7206     0C51                     l2806:
  7207     0C51  3000               	movlw	0
  7208     0C52  00C2               	movwf	?___fldiv+3
  7209     0C53  3000               	movlw	0
  7210     0C54  00C1               	movwf	?___fldiv+2
  7211     0C55  3000               	movlw	0
  7212     0C56  00C0               	movwf	?___fldiv+1
  7213     0C57  3000               	movlw	0
  7214     0C58  00BF               	movwf	?___fldiv
  7215     0C59  2DA7               	goto	l632
  7216     0C5A                     l2810:
  7217     0C5A  0857               	movf	___fldiv@bexp,w
  7218     0C5B  00C7               	movwf	??___fldiv
  7219     0C5C  01C8               	clrf	??___fldiv+1
  7220     0C5D  0848               	movf	??___fldiv+1,w
  7221     0C5E  00CA               	movwf	??___fldiv+3
  7222     0C5F  0858               	movf	___fldiv@aexp,w
  7223     0C60  0247               	subwf	??___fldiv,w
  7224     0C61  00C9               	movwf	??___fldiv+2
  7225     0C62  1C03               	skipc
  7226     0C63  03CA               	decf	??___fldiv+3,f
  7227     0C64  0849               	movf	??___fldiv+2,w
  7228     0C65  3E7F               	addlw	127
  7229     0C66  00D1               	movwf	___fldiv@new_exp
  7230     0C67  084A               	movf	??___fldiv+3,w
  7231     0C68  1803               	skipnc
  7232     0C69  3E01               	addlw	1
  7233     0C6A  3E00               	addlw	0
  7234     0C6B  00D2               	movwf	___fldiv@new_exp+1
  7235     0C6C                     l2812:
  7236     0C6C  0846               	movf	___fldiv@b+3,w
  7237     0C6D  00CF               	movwf	___fldiv@rem+3
  7238     0C6E  0845               	movf	___fldiv@b+2,w
  7239     0C6F  00CE               	movwf	___fldiv@rem+2
  7240     0C70  0844               	movf	___fldiv@b+1,w
  7241     0C71  00CD               	movwf	___fldiv@rem+1
  7242     0C72  0843               	movf	___fldiv@b,w
  7243     0C73  00CC               	movwf	___fldiv@rem
  7244     0C74                     l2814:
  7245     0C74  3000               	movlw	0
  7246     0C75  00C6               	movwf	___fldiv@b+3
  7247     0C76  3000               	movlw	0
  7248     0C77  00C5               	movwf	___fldiv@b+2
  7249     0C78  3000               	movlw	0
  7250     0C79  00C4               	movwf	___fldiv@b+1
  7251     0C7A  3000               	movlw	0
  7252     0C7B  00C3               	movwf	___fldiv@b
  7253     0C7C                     l2816:
  7254     0C7C  3000               	movlw	0
  7255     0C7D  00D6               	movwf	___fldiv@grs+3
  7256     0C7E  3000               	movlw	0
  7257     0C7F  00D5               	movwf	___fldiv@grs+2
  7258     0C80  3000               	movlw	0
  7259     0C81  00D4               	movwf	___fldiv@grs+1
  7260     0C82  3000               	movlw	0
  7261     0C83  00D3               	movwf	___fldiv@grs
  7262     0C84                     l2818:
  7263     0C84  01D8               	clrf	___fldiv@aexp
  7264     0C85  2CD0               	goto	l2838
  7265     0C86                     l2820:
  7266     0C86  0858               	movf	___fldiv@aexp,w
  7267     0C87  1903               	btfsc	3,2
  7268     0C88  2C8A               	goto	u3791
  7269     0C89  2C8B               	goto	u3790
  7270     0C8A                     u3791:
  7271     0C8A  2CAB               	goto	l2830
  7272     0C8B                     u3790:
  7273     0C8B                     l2822:
  7274     0C8B  3001               	movlw	1
  7275     0C8C  00C7               	movwf	??___fldiv
  7276     0C8D                     u3805:
  7277     0C8D  1003               	clrc
  7278     0C8E  0DCC               	rlf	___fldiv@rem,f
  7279     0C8F  0DCD               	rlf	___fldiv@rem+1,f
  7280     0C90  0DCE               	rlf	___fldiv@rem+2,f
  7281     0C91  0DCF               	rlf	___fldiv@rem+3,f
  7282     0C92  0BC7               	decfsz	??___fldiv,f
  7283     0C93  2C8D               	goto	u3805
  7284     0C94  3001               	movlw	1
  7285     0C95  00C7               	movwf	??___fldiv
  7286     0C96                     u3815:
  7287     0C96  1003               	clrc
  7288     0C97  0DC3               	rlf	___fldiv@b,f
  7289     0C98  0DC4               	rlf	___fldiv@b+1,f
  7290     0C99  0DC5               	rlf	___fldiv@b+2,f
  7291     0C9A  0DC6               	rlf	___fldiv@b+3,f
  7292     0C9B  0BC7               	decfsz	??___fldiv,f
  7293     0C9C  2C96               	goto	u3815
  7294     0C9D                     l2824:
  7295     0C9D  1FD6               	btfss	___fldiv@grs+3,7
  7296     0C9E  2CA0               	goto	u3821
  7297     0C9F  2CA1               	goto	u3820
  7298     0CA0                     u3821:
  7299     0CA0  2CA2               	goto	l2828
  7300     0CA1                     u3820:
  7301     0CA1                     l2826:
  7302     0CA1  1443               	bsf	___fldiv@b,0
  7303     0CA2                     l2828:
  7304     0CA2  3001               	movlw	1
  7305     0CA3  00C7               	movwf	??___fldiv
  7306     0CA4                     u3835:
  7307     0CA4  1003               	clrc
  7308     0CA5  0DD3               	rlf	___fldiv@grs,f
  7309     0CA6  0DD4               	rlf	___fldiv@grs+1,f
  7310     0CA7  0DD5               	rlf	___fldiv@grs+2,f
  7311     0CA8  0DD6               	rlf	___fldiv@grs+3,f
  7312     0CA9  0BC7               	decfsz	??___fldiv,f
  7313     0CAA  2CA4               	goto	u3835
  7314     0CAB                     l2830:
  7315     0CAB  0842               	movf	___fldiv@a+3,w
  7316     0CAC  024F               	subwf	___fldiv@rem+3,w
  7317     0CAD  1D03               	skipz
  7318     0CAE  2CB9               	goto	u3845
  7319     0CAF  0841               	movf	___fldiv@a+2,w
  7320     0CB0  024E               	subwf	___fldiv@rem+2,w
  7321     0CB1  1D03               	skipz
  7322     0CB2  2CB9               	goto	u3845
  7323     0CB3  0840               	movf	___fldiv@a+1,w
  7324     0CB4  024D               	subwf	___fldiv@rem+1,w
  7325     0CB5  1D03               	skipz
  7326     0CB6  2CB9               	goto	u3845
  7327     0CB7  083F               	movf	___fldiv@a,w
  7328     0CB8  024C               	subwf	___fldiv@rem,w
  7329     0CB9                     u3845:
  7330     0CB9  1C03               	skipc
  7331     0CBA  2CBC               	goto	u3841
  7332     0CBB  2CBD               	goto	u3840
  7333     0CBC                     u3841:
  7334     0CBC  2CCC               	goto	l2836
  7335     0CBD                     u3840:
  7336     0CBD                     l2832:
  7337     0CBD  1756               	bsf	___fldiv@grs+3,6
  7338     0CBE                     l2834:
  7339     0CBE  083F               	movf	___fldiv@a,w
  7340     0CBF  02CC               	subwf	___fldiv@rem,f
  7341     0CC0  0840               	movf	___fldiv@a+1,w
  7342     0CC1  1C03               	skipc
  7343     0CC2  0F40               	incfsz	___fldiv@a+1,w
  7344     0CC3  02CD               	subwf	___fldiv@rem+1,f
  7345     0CC4  0841               	movf	___fldiv@a+2,w
  7346     0CC5  1C03               	skipc
  7347     0CC6  0F41               	incfsz	___fldiv@a+2,w
  7348     0CC7  02CE               	subwf	___fldiv@rem+2,f
  7349     0CC8  0842               	movf	___fldiv@a+3,w
  7350     0CC9  1C03               	skipc
  7351     0CCA  0F42               	incfsz	___fldiv@a+3,w
  7352     0CCB  02CF               	subwf	___fldiv@rem+3,f
  7353     0CCC                     l2836:
  7354     0CCC  3001               	movlw	1
  7355     0CCD  00C7               	movwf	??___fldiv
  7356     0CCE  0847               	movf	??___fldiv,w
  7357     0CCF  07D8               	addwf	___fldiv@aexp,f
  7358     0CD0                     l2838:
  7359     0CD0  301A               	movlw	26
  7360     0CD1  0258               	subwf	___fldiv@aexp,w
  7361     0CD2  1C03               	skipc
  7362     0CD3  2CD5               	goto	u3851
  7363     0CD4  2CD6               	goto	u3850
  7364     0CD5                     u3851:
  7365     0CD5  2C86               	goto	l2820
  7366     0CD6                     u3850:
  7367     0CD6                     l2840:
  7368     0CD6  084F               	movf	___fldiv@rem+3,w
  7369     0CD7  044E               	iorwf	___fldiv@rem+2,w
  7370     0CD8  044D               	iorwf	___fldiv@rem+1,w
  7371     0CD9  044C               	iorwf	___fldiv@rem,w
  7372     0CDA  1903               	skipnz
  7373     0CDB  2CDD               	goto	u3861
  7374     0CDC  2CDE               	goto	u3860
  7375     0CDD                     u3861:
  7376     0CDD  2CFD               	goto	l2854
  7377     0CDE                     u3860:
  7378     0CDE                     l2842:
  7379     0CDE  1453               	bsf	___fldiv@grs,0
  7380     0CDF  2CFD               	goto	l2854
  7381     0CE0                     l2844:
  7382     0CE0  3001               	movlw	1
  7383     0CE1  00C7               	movwf	??___fldiv
  7384     0CE2                     u3875:
  7385     0CE2  1003               	clrc
  7386     0CE3  0DC3               	rlf	___fldiv@b,f
  7387     0CE4  0DC4               	rlf	___fldiv@b+1,f
  7388     0CE5  0DC5               	rlf	___fldiv@b+2,f
  7389     0CE6  0DC6               	rlf	___fldiv@b+3,f
  7390     0CE7  0BC7               	decfsz	??___fldiv,f
  7391     0CE8  2CE2               	goto	u3875
  7392     0CE9                     l2846:
  7393     0CE9  1FD6               	btfss	___fldiv@grs+3,7
  7394     0CEA  2CEC               	goto	u3881
  7395     0CEB  2CED               	goto	u3880
  7396     0CEC                     u3881:
  7397     0CEC  2CEE               	goto	l2850
  7398     0CED                     u3880:
  7399     0CED                     l2848:
  7400     0CED  1443               	bsf	___fldiv@b,0
  7401     0CEE                     l2850:
  7402     0CEE  3001               	movlw	1
  7403     0CEF  00C7               	movwf	??___fldiv
  7404     0CF0                     u3895:
  7405     0CF0  1003               	clrc
  7406     0CF1  0DD3               	rlf	___fldiv@grs,f
  7407     0CF2  0DD4               	rlf	___fldiv@grs+1,f
  7408     0CF3  0DD5               	rlf	___fldiv@grs+2,f
  7409     0CF4  0DD6               	rlf	___fldiv@grs+3,f
  7410     0CF5  0BC7               	decfsz	??___fldiv,f
  7411     0CF6  2CF0               	goto	u3895
  7412     0CF7                     l2852:
  7413     0CF7  30FF               	movlw	255
  7414     0CF8  07D1               	addwf	___fldiv@new_exp,f
  7415     0CF9  1803               	skipnc
  7416     0CFA  0AD2               	incf	___fldiv@new_exp+1,f
  7417     0CFB  30FF               	movlw	255
  7418     0CFC  07D2               	addwf	___fldiv@new_exp+1,f
  7419     0CFD                     l2854:
  7420     0CFD  1FC5               	btfss	___fldiv@b+2,7
  7421     0CFE  2D00               	goto	u3901
  7422     0CFF  2D01               	goto	u3900
  7423     0D00                     u3901:
  7424     0D00  2CE0               	goto	l2844
  7425     0D01                     u3900:
  7426     0D01                     l2856:
  7427     0D01  01D8               	clrf	___fldiv@aexp
  7428     0D02                     l2858:
  7429     0D02  1FD6               	btfss	___fldiv@grs+3,7
  7430     0D03  2D05               	goto	u3911
  7431     0D04  2D06               	goto	u3910
  7432     0D05                     u3911:
  7433     0D05  2D22               	goto	l2866
  7434     0D06                     u3910:
  7435     0D06                     l2860:
  7436     0D06  30FF               	movlw	255
  7437     0D07  0553               	andwf	___fldiv@grs,w
  7438     0D08  00C7               	movwf	??___fldiv
  7439     0D09  30FF               	movlw	255
  7440     0D0A  0554               	andwf	___fldiv@grs+1,w
  7441     0D0B  00C8               	movwf	??___fldiv+1
  7442     0D0C  30FF               	movlw	255
  7443     0D0D  0555               	andwf	___fldiv@grs+2,w
  7444     0D0E  00C9               	movwf	??___fldiv+2
  7445     0D0F  307F               	movlw	127
  7446     0D10  0556               	andwf	___fldiv@grs+3,w
  7447     0D11  00CA               	movwf	??___fldiv+3
  7448     0D12  084A               	movf	??___fldiv+3,w
  7449     0D13  0449               	iorwf	??___fldiv+2,w
  7450     0D14  0448               	iorwf	??___fldiv+1,w
  7451     0D15  0447               	iorwf	??___fldiv,w
  7452     0D16  1903               	skipnz
  7453     0D17  2D19               	goto	u3921
  7454     0D18  2D1A               	goto	u3920
  7455     0D19                     u3921:
  7456     0D19  2D1D               	goto	l646
  7457     0D1A                     u3920:
  7458     0D1A                     l2862:
  7459     0D1A  01D8               	clrf	___fldiv@aexp
  7460     0D1B  0AD8               	incf	___fldiv@aexp,f
  7461     0D1C  2D22               	goto	l2866
  7462     0D1D                     l646:
  7463     0D1D  1C43               	btfss	___fldiv@b,0
  7464     0D1E  2D20               	goto	u3931
  7465     0D1F  2D21               	goto	u3930
  7466     0D20                     u3931:
  7467     0D20  2D22               	goto	l2866
  7468     0D21                     u3930:
  7469     0D21  2D1A               	goto	l2862
  7470     0D22                     l2866:
  7471     0D22  0858               	movf	___fldiv@aexp,w
  7472     0D23  1903               	btfsc	3,2
  7473     0D24  2D26               	goto	u3941
  7474     0D25  2D27               	goto	u3940
  7475     0D26                     u3941:
  7476     0D26  2D58               	goto	l2876
  7477     0D27                     u3940:
  7478     0D27                     l2868:
  7479     0D27  3001               	movlw	1
  7480     0D28  07C3               	addwf	___fldiv@b,f
  7481     0D29  3000               	movlw	0
  7482     0D2A  1803               	skipnc
  7483     0D2B  3001               	movlw	1
  7484     0D2C  07C4               	addwf	___fldiv@b+1,f
  7485     0D2D  3000               	movlw	0
  7486     0D2E  1803               	skipnc
  7487     0D2F  3001               	movlw	1
  7488     0D30  07C5               	addwf	___fldiv@b+2,f
  7489     0D31  3000               	movlw	0
  7490     0D32  1803               	skipnc
  7491     0D33  3001               	movlw	1
  7492     0D34  07C6               	addwf	___fldiv@b+3,f
  7493     0D35                     l2870:
  7494     0D35  1C46               	btfss	___fldiv@b+3,0
  7495     0D36  2D38               	goto	u3951
  7496     0D37  2D39               	goto	u3950
  7497     0D38                     u3951:
  7498     0D38  2D58               	goto	l2876
  7499     0D39                     u3950:
  7500     0D39                     l2872:
  7501     0D39  0843               	movf	___fldiv@b,w
  7502     0D3A  00C7               	movwf	??___fldiv
  7503     0D3B  0844               	movf	___fldiv@b+1,w
  7504     0D3C  00C8               	movwf	??___fldiv+1
  7505     0D3D  0845               	movf	___fldiv@b+2,w
  7506     0D3E  00C9               	movwf	??___fldiv+2
  7507     0D3F  0846               	movf	___fldiv@b+3,w
  7508     0D40  00CA               	movwf	??___fldiv+3
  7509     0D41  3001               	movlw	1
  7510     0D42  00CB               	movwf	??___fldiv+4
  7511     0D43                     u3965:
  7512     0D43  0D4A               	rlf	??___fldiv+3,w
  7513     0D44  0CCA               	rrf	??___fldiv+3,f
  7514     0D45  0CC9               	rrf	??___fldiv+2,f
  7515     0D46  0CC8               	rrf	??___fldiv+1,f
  7516     0D47  0CC7               	rrf	??___fldiv,f
  7517     0D48                     u3960:
  7518     0D48  0BCB               	decfsz	??___fldiv+4,f
  7519     0D49  2D43               	goto	u3965
  7520     0D4A  084A               	movf	??___fldiv+3,w
  7521     0D4B  00C6               	movwf	___fldiv@b+3
  7522     0D4C  0849               	movf	??___fldiv+2,w
  7523     0D4D  00C5               	movwf	___fldiv@b+2
  7524     0D4E  0848               	movf	??___fldiv+1,w
  7525     0D4F  00C4               	movwf	___fldiv@b+1
  7526     0D50  0847               	movf	??___fldiv,w
  7527     0D51  00C3               	movwf	___fldiv@b
  7528     0D52                     l2874:
  7529     0D52  3001               	movlw	1
  7530     0D53  07D1               	addwf	___fldiv@new_exp,f
  7531     0D54  1803               	skipnc
  7532     0D55  0AD2               	incf	___fldiv@new_exp+1,f
  7533     0D56  3000               	movlw	0
  7534     0D57  07D2               	addwf	___fldiv@new_exp+1,f
  7535     0D58                     l2876:
  7536     0D58  0852               	movf	___fldiv@new_exp+1,w
  7537     0D59  3A80               	xorlw	128
  7538     0D5A  00FF               	movwf	btemp+1
  7539     0D5B  3080               	movlw	128
  7540     0D5C  027F               	subwf	btemp+1,w
  7541     0D5D  1D03               	skipz
  7542     0D5E  2D61               	goto	u3975
  7543     0D5F  30FF               	movlw	255
  7544     0D60  0251               	subwf	___fldiv@new_exp,w
  7545     0D61                     u3975:
  7546     0D61  1C03               	skipc
  7547     0D62  2D64               	goto	u3971
  7548     0D63  2D65               	goto	u3970
  7549     0D64                     u3971:
  7550     0D64  2D73               	goto	l2880
  7551     0D65                     u3970:
  7552     0D65                     l2878:
  7553     0D65  30FF               	movlw	255
  7554     0D66  1283               	bcf	3,5	;RP0=0, select bank0
  7555     0D67  1303               	bcf	3,6	;RP1=0, select bank0
  7556     0D68  00D1               	movwf	___fldiv@new_exp
  7557     0D69  3000               	movlw	0
  7558     0D6A  00D2               	movwf	___fldiv@new_exp+1
  7559     0D6B  3000               	movlw	0
  7560     0D6C  00C6               	movwf	___fldiv@b+3
  7561     0D6D  3000               	movlw	0
  7562     0D6E  00C5               	movwf	___fldiv@b+2
  7563     0D6F  3000               	movlw	0
  7564     0D70  00C4               	movwf	___fldiv@b+1
  7565     0D71  3000               	movlw	0
  7566     0D72  00C3               	movwf	___fldiv@b
  7567     0D73                     l2880:
  7568     0D73  1283               	bcf	3,5	;RP0=0, select bank0
  7569     0D74  1303               	bcf	3,6	;RP1=0, select bank0
  7570     0D75  0852               	movf	___fldiv@new_exp+1,w
  7571     0D76  3A80               	xorlw	128
  7572     0D77  00FF               	movwf	btemp+1
  7573     0D78  3080               	movlw	128
  7574     0D79  027F               	subwf	btemp+1,w
  7575     0D7A  1D03               	skipz
  7576     0D7B  2D7E               	goto	u3985
  7577     0D7C  3001               	movlw	1
  7578     0D7D  0251               	subwf	___fldiv@new_exp,w
  7579     0D7E                     u3985:
  7580     0D7E  1803               	skipnc
  7581     0D7F  2D81               	goto	u3981
  7582     0D80  2D82               	goto	u3980
  7583     0D81                     u3981:
  7584     0D81  2D8F               	goto	l652
  7585     0D82                     u3980:
  7586     0D82                     l2882:
  7587     0D82  1283               	bcf	3,5	;RP0=0, select bank0
  7588     0D83  1303               	bcf	3,6	;RP1=0, select bank0
  7589     0D84  01D1               	clrf	___fldiv@new_exp
  7590     0D85  01D2               	clrf	___fldiv@new_exp+1
  7591     0D86                     l2884:
  7592     0D86  3000               	movlw	0
  7593     0D87  00C6               	movwf	___fldiv@b+3
  7594     0D88  3000               	movlw	0
  7595     0D89  00C5               	movwf	___fldiv@b+2
  7596     0D8A  3000               	movlw	0
  7597     0D8B  00C4               	movwf	___fldiv@b+1
  7598     0D8C  3000               	movlw	0
  7599     0D8D  00C3               	movwf	___fldiv@b
  7600     0D8E                     l2886:
  7601     0D8E  01D0               	clrf	___fldiv@sign
  7602     0D8F                     l652:
  7603     0D8F  1283               	bcf	3,5	;RP0=0, select bank0
  7604     0D90  1303               	bcf	3,6	;RP1=0, select bank0
  7605     0D91  0851               	movf	___fldiv@new_exp,w
  7606     0D92  00D7               	movwf	___fldiv@bexp
  7607     0D93                     l2888:
  7608     0D93  1C57               	btfss	___fldiv@bexp,0
  7609     0D94  2D96               	goto	u3991
  7610     0D95  2D97               	goto	u3990
  7611     0D96                     u3991:
  7612     0D96  2D99               	goto	l2892
  7613     0D97                     u3990:
  7614     0D97                     l2890:
  7615     0D97  17C5               	bsf	___fldiv@b+2,7
  7616     0D98  2D9D               	goto	l654
  7617     0D99                     l2892:
  7618     0D99  307F               	movlw	127
  7619     0D9A  00C7               	movwf	??___fldiv
  7620     0D9B  0847               	movf	??___fldiv,w
  7621     0D9C  05C5               	andwf	___fldiv@b+2,f
  7622     0D9D                     l654:
  7623     0D9D  0857               	movf	___fldiv@bexp,w
  7624     0D9E  00C7               	movwf	??___fldiv
  7625     0D9F  1003               	clrc
  7626     0DA0  0C47               	rrf	??___fldiv,w
  7627     0DA1  00C6               	movwf	___fldiv@b+3
  7628     0DA2  0850               	movf	___fldiv@sign,w
  7629     0DA3  00C7               	movwf	??___fldiv
  7630     0DA4  0847               	movf	??___fldiv,w
  7631     0DA5  04C6               	iorwf	___fldiv@b+3,f
  7632     0DA6  2C43               	goto	l2800
  7633     0DA7                     l632:
  7634     0DA7  0008               	return
  7635     0DA8                     __end_of___fldiv:
  7636                           
  7637                           	psect	text18
  7638     1362                     __ptext18:	
  7639 ;; *************** function _USART_SendString *****************
  7640 ;; Defined at:
  7641 ;;		line 37 in file "uart.c"
  7642 ;; Parameters:    Size  Location     Type
  7643 ;;  out             2    1[COMMON] PTR const unsigned char 
  7644 ;;		 -> stringBT(50), STR_2(63), 
  7645 ;; Auto vars:     Size  Location     Type
  7646 ;;		None
  7647 ;; Return value:  Size  Location     Type
  7648 ;;                  1    wreg      void 
  7649 ;; Registers used:
  7650 ;;		wreg, fsr0l, fsr0h, status,2, status,0, btemp+1, pclath, cstack
  7651 ;; Tracked objects:
  7652 ;;		On entry : 0/0
  7653 ;;		On exit  : 0/0
  7654 ;;		Unchanged: 0/0
  7655 ;; Data sizes:     COMMON   BANK0   BANK1   BANK3   BANK2
  7656 ;;      Params:         2       0       0       0       0
  7657 ;;      Locals:         0       0       0       0       0
  7658 ;;      Temps:          0       0       0       0       0
  7659 ;;      Totals:         2       0       0       0       0
  7660 ;;Total ram usage:        2 bytes
  7661 ;; Hardware stack levels used: 1
  7662 ;; Hardware stack levels required when called: 1
  7663 ;; This function calls:
  7664 ;;		_USART_TxChar
  7665 ;; This function is called by:
  7666 ;;		_main
  7667 ;; This function uses a non-reentrant model
  7668 ;;
  7669                           
  7670     1362                     _USART_SendString:	
  7671                           ;psect for function _USART_SendString
  7672                           
  7673     1362                     l2596:	
  7674                           ;incstack = 0
  7675                           ; Regs used in _USART_SendString: [wreg-fsr0h+status,2+status,0+btemp+1+pclath+cstack]
  7676                           
  7677                           
  7678                           ;uart.c: 37: void USART_SendString(const char *out);uart.c: 38: {;uart.c: 39:    while(*
      +                          out!='\0')
  7679     1362  2B77               	goto	l2602
  7680     1363                     l2598:
  7681                           
  7682                           ;uart.c: 40:    {;uart.c: 41:         USART_TxChar(*out);
  7683     1363  0872               	movf	USART_SendString@out+1,w
  7684     1364  00FF               	movwf	btemp+1
  7685     1365  0871               	movf	USART_SendString@out,w
  7686     1366  0084               	movwf	4
  7687     1367  160A  118A  2000  160A  118A  	fcall	stringtab
  7688     136C  120A  118A  200A  160A  118A  	fcall	_USART_TxChar
  7689     1371                     l2600:
  7690                           
  7691                           ;uart.c: 42:         out++;
  7692     1371  3001               	movlw	1
  7693     1372  07F1               	addwf	USART_SendString@out,f
  7694     1373  1803               	skipnc
  7695     1374  0AF2               	incf	USART_SendString@out+1,f
  7696     1375  3000               	movlw	0
  7697     1376  07F2               	addwf	USART_SendString@out+1,f
  7698     1377                     l2602:
  7699                           
  7700                           ;uart.c: 39:    while(*out!='\0')
  7701     1377  0872               	movf	USART_SendString@out+1,w
  7702     1378  1283               	bcf	3,5	;RP0=0, select bank0
  7703     1379  1303               	bcf	3,6	;RP1=0, select bank0
  7704     137A  00FF               	movwf	btemp+1
  7705     137B  0871               	movf	USART_SendString@out,w
  7706     137C  0084               	movwf	4
  7707     137D  160A  118A  2000  160A  118A  	fcall	stringtab
  7708     1382  3A00               	xorlw	0
  7709     1383  1D03               	skipz
  7710     1384  2B86               	goto	u3481
  7711     1385  2B87               	goto	u3480
  7712     1386                     u3481:
  7713     1386  2B63               	goto	l2598
  7714     1387                     u3480:
  7715     1387                     l166:
  7716     1387  0008               	return
  7717     1388                     __end_of_USART_SendString:
  7718                           
  7719                           	psect	text19
  7720     000A                     __ptext19:	
  7721 ;; *************** function _USART_TxChar *****************
  7722 ;; Defined at:
  7723 ;;		line 16 in file "uart.c"
  7724 ;; Parameters:    Size  Location     Type
  7725 ;;  out             1    wreg     unsigned char 
  7726 ;; Auto vars:     Size  Location     Type
  7727 ;;  out             1    0[COMMON] unsigned char 
  7728 ;; Return value:  Size  Location     Type
  7729 ;;                  1    wreg      void 
  7730 ;; Registers used:
  7731 ;;		wreg
  7732 ;; Tracked objects:
  7733 ;;		On entry : 0/0
  7734 ;;		On exit  : 0/0
  7735 ;;		Unchanged: 0/0
  7736 ;; Data sizes:     COMMON   BANK0   BANK1   BANK3   BANK2
  7737 ;;      Params:         0       0       0       0       0
  7738 ;;      Locals:         1       0       0       0       0
  7739 ;;      Temps:          0       0       0       0       0
  7740 ;;      Totals:         1       0       0       0       0
  7741 ;;Total ram usage:        1 bytes
  7742 ;; Hardware stack levels used: 1
  7743 ;; This function calls:
  7744 ;;		Nothing
  7745 ;; This function is called by:
  7746 ;;		_USART_SendString
  7747 ;; This function uses a non-reentrant model
  7748 ;;
  7749                           
  7750     000A                     _USART_TxChar:	
  7751                           ;psect for function _USART_TxChar
  7752                           
  7753                           
  7754                           ;incstack = 0
  7755                           ; Regs used in _USART_TxChar: [wreg]
  7756                           ;USART_TxChar@out stored from wreg
  7757     000A  00F0               	movwf	USART_TxChar@out
  7758     000B                     l2370:
  7759     000B                     l150:	
  7760                           ;uart.c: 16: void USART_TxChar(char out);uart.c: 17: {;uart.c: 18:         while(TXIF==0
      +                          );
  7761                           
  7762     000B  1283               	bcf	3,5	;RP0=0, select bank0
  7763     000C  1303               	bcf	3,6	;RP1=0, select bank0
  7764     000D  1E0C               	btfss	12,4	;volatile
  7765     000E  2810               	goto	u2981
  7766     000F  2811               	goto	u2980
  7767     0010                     u2981:
  7768     0010  280B               	goto	l150
  7769     0011                     u2980:
  7770     0011                     l2372:
  7771                           
  7772                           ;uart.c: 19:         TXREG=out;
  7773     0011  0870               	movf	USART_TxChar@out,w
  7774     0012  0099               	movwf	25	;volatile
  7775     0013                     l153:
  7776     0013  0008               	return
  7777     0014                     __end_of_USART_TxChar:
  7778                           
  7779                           	psect	text20
  7780     14B1                     __ptext20:	
  7781 ;; *************** function _USART_Init *****************
  7782 ;; Defined at:
  7783 ;;		line 5 in file "uart.c"
  7784 ;; Parameters:    Size  Location     Type
  7785 ;;  baud_rate       4    6[BANK0 ] long 
  7786 ;; Auto vars:     Size  Location     Type
  7787 ;;  temp            4    0        float 
  7788 ;; Return value:  Size  Location     Type
  7789 ;;                  1    wreg      void 
  7790 ;; Registers used:
  7791 ;;		wreg, status,2, status,0, pclath, cstack
  7792 ;; Tracked objects:
  7793 ;;		On entry : 0/0
  7794 ;;		On exit  : 0/0
  7795 ;;		Unchanged: 0/0
  7796 ;; Data sizes:     COMMON   BANK0   BANK1   BANK3   BANK2
  7797 ;;      Params:         0       4       0       0       0
  7798 ;;      Locals:         4       0       0       0       0
  7799 ;;      Temps:          0       0       0       0       0
  7800 ;;      Totals:         4       4       0       0       0
  7801 ;;Total ram usage:        8 bytes
  7802 ;; Hardware stack levels used: 1
  7803 ;; Hardware stack levels required when called: 1
  7804 ;; This function calls:
  7805 ;;		___aldiv
  7806 ;; This function is called by:
  7807 ;;		_main
  7808 ;; This function uses a non-reentrant model
  7809 ;;
  7810                           
  7811     14B1                     _USART_Init:	
  7812                           ;psect for function _USART_Init
  7813                           
  7814     14B1                     l2588:	
  7815                           ;incstack = 0
  7816                           ; Regs used in _USART_Init: [wreg+status,2+status,0+pclath+cstack]
  7817                           
  7818                           
  7819                           ;uart.c: 5: void USART_Init(long baud_rate);uart.c: 6: {;uart.c: 7:     float temp;;uart
      +                          .c: 8:     TRISC6=0;
  7820     14B1  1683               	bsf	3,5	;RP0=1, select bank1
  7821     14B2  1303               	bcf	3,6	;RP1=0, select bank1
  7822     14B3  1307               	bcf	7,6	;volatile
  7823                           
  7824                           ;uart.c: 9:     TRISC7=1;
  7825     14B4  1787               	bsf	7,7	;volatile
  7826     14B5                     l2590:
  7827                           
  7828                           ;uart.c: 10:     SPBRG=(unsigned char) (((8000000 / baud_rate) / 64) - 1);
  7829     14B5  1283               	bcf	3,5	;RP0=0, select bank0
  7830     14B6  1303               	bcf	3,6	;RP1=0, select bank0
  7831     14B7  0829               	movf	USART_Init@baud_rate+3,w
  7832     14B8  00F3               	movwf	___aldiv@divisor+3
  7833     14B9  0828               	movf	USART_Init@baud_rate+2,w
  7834     14BA  00F2               	movwf	___aldiv@divisor+2
  7835     14BB  0827               	movf	USART_Init@baud_rate+1,w
  7836     14BC  00F1               	movwf	___aldiv@divisor+1
  7837     14BD  0826               	movf	USART_Init@baud_rate,w
  7838     14BE  00F0               	movwf	___aldiv@divisor
  7839     14BF  3000               	movlw	0
  7840     14C0  00F7               	movwf	___aldiv@dividend+3
  7841     14C1  307A               	movlw	122
  7842     14C2  00F6               	movwf	___aldiv@dividend+2
  7843     14C3  3012               	movlw	18
  7844     14C4  00F5               	movwf	___aldiv@dividend+1
  7845     14C5  3000               	movlw	0
  7846     14C6  00F4               	movwf	___aldiv@dividend
  7847     14C7  160A  118A  26C1  160A  118A  	fcall	___aldiv
  7848     14CC  0873               	movf	?___aldiv+3,w
  7849     14CD  00FC               	movwf	_USART_Init$1056+3
  7850     14CE  0872               	movf	?___aldiv+2,w
  7851     14CF  00FB               	movwf	_USART_Init$1056+2
  7852     14D0  0871               	movf	?___aldiv+1,w
  7853     14D1  00FA               	movwf	_USART_Init$1056+1
  7854     14D2  0870               	movf	?___aldiv,w
  7855     14D3  00F9               	movwf	_USART_Init$1056
  7856                           
  7857                           ;uart.c: 10:     SPBRG=(unsigned char) (((8000000 / baud_rate) / 64) - 1);
  7858     14D4  3000               	movlw	0
  7859     14D5  00F3               	movwf	___aldiv@divisor+3
  7860     14D6  3000               	movlw	0
  7861     14D7  00F2               	movwf	___aldiv@divisor+2
  7862     14D8  3000               	movlw	0
  7863     14D9  00F1               	movwf	___aldiv@divisor+1
  7864     14DA  3040               	movlw	64
  7865     14DB  00F0               	movwf	___aldiv@divisor
  7866     14DC  087C               	movf	_USART_Init$1056+3,w
  7867     14DD  00F7               	movwf	___aldiv@dividend+3
  7868     14DE  087B               	movf	_USART_Init$1056+2,w
  7869     14DF  00F6               	movwf	___aldiv@dividend+2
  7870     14E0  087A               	movf	_USART_Init$1056+1,w
  7871     14E1  00F5               	movwf	___aldiv@dividend+1
  7872     14E2  0879               	movf	_USART_Init$1056,w
  7873     14E3  00F4               	movwf	___aldiv@dividend
  7874     14E4  160A  118A  26C1  160A  118A  	fcall	___aldiv
  7875     14E9  0870               	movf	?___aldiv,w
  7876     14EA  3EFF               	addlw	255
  7877     14EB  1683               	bsf	3,5	;RP0=1, select bank1
  7878     14EC  1303               	bcf	3,6	;RP1=0, select bank1
  7879     14ED  0099               	movwf	25	;volatile
  7880     14EE                     l2592:
  7881                           
  7882                           ;uart.c: 11:     TXSTA=0x20;
  7883     14EE  3020               	movlw	32
  7884     14EF  0098               	movwf	24	;volatile
  7885     14F0                     l2594:
  7886                           
  7887                           ;uart.c: 12:     RCSTA=0x90;
  7888     14F0  3090               	movlw	144
  7889     14F1  1283               	bcf	3,5	;RP0=0, select bank0
  7890     14F2  1303               	bcf	3,6	;RP1=0, select bank0
  7891     14F3  0098               	movwf	24	;volatile
  7892     14F4                     l147:
  7893     14F4  0008               	return
  7894     14F5                     __end_of_USART_Init:
  7895                           
  7896                           	psect	text21
  7897     16C1                     __ptext21:	
  7898 ;; *************** function ___aldiv *****************
  7899 ;; Defined at:
  7900 ;;		line 5 in file "C:\Program Files\Microchip\xc8\v2.40\pic\sources\c90\common\aldiv.c"
  7901 ;; Parameters:    Size  Location     Type
  7902 ;;  divisor         4    0[COMMON] long 
  7903 ;;  dividend        4    4[COMMON] long 
  7904 ;; Auto vars:     Size  Location     Type
  7905 ;;  quotient        4    2[BANK0 ] long 
  7906 ;;  sign            1    1[BANK0 ] unsigned char 
  7907 ;;  counter         1    0[BANK0 ] unsigned char 
  7908 ;; Return value:  Size  Location     Type
  7909 ;;                  4    0[COMMON] long 
  7910 ;; Registers used:
  7911 ;;		wreg, status,2, status,0
  7912 ;; Tracked objects:
  7913 ;;		On entry : 0/0
  7914 ;;		On exit  : 0/0
  7915 ;;		Unchanged: 0/0
  7916 ;; Data sizes:     COMMON   BANK0   BANK1   BANK3   BANK2
  7917 ;;      Params:         8       0       0       0       0
  7918 ;;      Locals:         0       6       0       0       0
  7919 ;;      Temps:          1       0       0       0       0
  7920 ;;      Totals:         9       6       0       0       0
  7921 ;;Total ram usage:       15 bytes
  7922 ;; Hardware stack levels used: 1
  7923 ;; This function calls:
  7924 ;;		Nothing
  7925 ;; This function is called by:
  7926 ;;		_USART_Init
  7927 ;; This function uses a non-reentrant model
  7928 ;;
  7929                           
  7930     16C1                     ___aldiv:	
  7931                           ;psect for function ___aldiv
  7932                           
  7933     16C1                     l2374:	
  7934                           ;incstack = 0
  7935                           ; Regs used in ___aldiv: [wreg+status,2+status,0]
  7936                           
  7937     16C1  1283               	bcf	3,5	;RP0=0, select bank0
  7938     16C2  1303               	bcf	3,6	;RP1=0, select bank0
  7939     16C3  01A1               	clrf	___aldiv@sign
  7940     16C4                     l2376:
  7941     16C4  1FF3               	btfss	___aldiv@divisor+3,7
  7942     16C5  2EC7               	goto	u2991
  7943     16C6  2EC8               	goto	u2990
  7944     16C7                     u2991:
  7945     16C7  2ED5               	goto	l346
  7946     16C8                     u2990:
  7947     16C8                     l2378:
  7948     16C8  09F0               	comf	___aldiv@divisor,f
  7949     16C9  09F1               	comf	___aldiv@divisor+1,f
  7950     16CA  09F2               	comf	___aldiv@divisor+2,f
  7951     16CB  09F3               	comf	___aldiv@divisor+3,f
  7952     16CC  0AF0               	incf	___aldiv@divisor,f
  7953     16CD  1903               	skipnz
  7954     16CE  0AF1               	incf	___aldiv@divisor+1,f
  7955     16CF  1903               	skipnz
  7956     16D0  0AF2               	incf	___aldiv@divisor+2,f
  7957     16D1  1903               	skipnz
  7958     16D2  0AF3               	incf	___aldiv@divisor+3,f
  7959     16D3  01A1               	clrf	___aldiv@sign
  7960     16D4  0AA1               	incf	___aldiv@sign,f
  7961     16D5                     l346:
  7962     16D5  1FF7               	btfss	___aldiv@dividend+3,7
  7963     16D6  2ED8               	goto	u3001
  7964     16D7  2ED9               	goto	u3000
  7965     16D8                     u3001:
  7966     16D8  2EE8               	goto	l2384
  7967     16D9                     u3000:
  7968     16D9                     l2380:
  7969     16D9  09F4               	comf	___aldiv@dividend,f
  7970     16DA  09F5               	comf	___aldiv@dividend+1,f
  7971     16DB  09F6               	comf	___aldiv@dividend+2,f
  7972     16DC  09F7               	comf	___aldiv@dividend+3,f
  7973     16DD  0AF4               	incf	___aldiv@dividend,f
  7974     16DE  1903               	skipnz
  7975     16DF  0AF5               	incf	___aldiv@dividend+1,f
  7976     16E0  1903               	skipnz
  7977     16E1  0AF6               	incf	___aldiv@dividend+2,f
  7978     16E2  1903               	skipnz
  7979     16E3  0AF7               	incf	___aldiv@dividend+3,f
  7980     16E4                     l2382:
  7981     16E4  3001               	movlw	1
  7982     16E5  00F8               	movwf	??___aldiv
  7983     16E6  0878               	movf	??___aldiv,w
  7984     16E7  06A1               	xorwf	___aldiv@sign,f
  7985     16E8                     l2384:
  7986     16E8  3000               	movlw	0
  7987     16E9  00A5               	movwf	___aldiv@quotient+3
  7988     16EA  3000               	movlw	0
  7989     16EB  00A4               	movwf	___aldiv@quotient+2
  7990     16EC  3000               	movlw	0
  7991     16ED  00A3               	movwf	___aldiv@quotient+1
  7992     16EE  3000               	movlw	0
  7993     16EF  00A2               	movwf	___aldiv@quotient
  7994     16F0                     l2386:
  7995     16F0  0873               	movf	___aldiv@divisor+3,w
  7996     16F1  0472               	iorwf	___aldiv@divisor+2,w
  7997     16F2  0471               	iorwf	___aldiv@divisor+1,w
  7998     16F3  0470               	iorwf	___aldiv@divisor,w
  7999     16F4  1903               	skipnz
  8000     16F5  2EF7               	goto	u3011
  8001     16F6  2EF8               	goto	u3010
  8002     16F7                     u3011:
  8003     16F7  2F45               	goto	l2406
  8004     16F8                     u3010:
  8005     16F8                     l2388:
  8006     16F8  01A0               	clrf	___aldiv@counter
  8007     16F9  0AA0               	incf	___aldiv@counter,f
  8008     16FA  2F08               	goto	l2392
  8009     16FB                     l2390:
  8010     16FB  3001               	movlw	1
  8011     16FC  00F8               	movwf	??___aldiv
  8012     16FD                     u3025:
  8013     16FD  1003               	clrc
  8014     16FE  0DF0               	rlf	___aldiv@divisor,f
  8015     16FF  0DF1               	rlf	___aldiv@divisor+1,f
  8016     1700  0DF2               	rlf	___aldiv@divisor+2,f
  8017     1701  0DF3               	rlf	___aldiv@divisor+3,f
  8018     1702  0BF8               	decfsz	??___aldiv,f
  8019     1703  2EFD               	goto	u3025
  8020     1704  3001               	movlw	1
  8021     1705  00F8               	movwf	??___aldiv
  8022     1706  0878               	movf	??___aldiv,w
  8023     1707  07A0               	addwf	___aldiv@counter,f
  8024     1708                     l2392:
  8025     1708  1FF3               	btfss	___aldiv@divisor+3,7
  8026     1709  2F0B               	goto	u3031
  8027     170A  2F0C               	goto	u3030
  8028     170B                     u3031:
  8029     170B  2EFB               	goto	l2390
  8030     170C                     u3030:
  8031     170C                     l2394:
  8032     170C  3001               	movlw	1
  8033     170D  00F8               	movwf	??___aldiv
  8034     170E                     u3045:
  8035     170E  1003               	clrc
  8036     170F  0DA2               	rlf	___aldiv@quotient,f
  8037     1710  0DA3               	rlf	___aldiv@quotient+1,f
  8038     1711  0DA4               	rlf	___aldiv@quotient+2,f
  8039     1712  0DA5               	rlf	___aldiv@quotient+3,f
  8040     1713  0BF8               	decfsz	??___aldiv,f
  8041     1714  2F0E               	goto	u3045
  8042     1715                     l2396:
  8043     1715  0873               	movf	___aldiv@divisor+3,w
  8044     1716  0277               	subwf	___aldiv@dividend+3,w
  8045     1717  1D03               	skipz
  8046     1718  2F23               	goto	u3055
  8047     1719  0872               	movf	___aldiv@divisor+2,w
  8048     171A  0276               	subwf	___aldiv@dividend+2,w
  8049     171B  1D03               	skipz
  8050     171C  2F23               	goto	u3055
  8051     171D  0871               	movf	___aldiv@divisor+1,w
  8052     171E  0275               	subwf	___aldiv@dividend+1,w
  8053     171F  1D03               	skipz
  8054     1720  2F23               	goto	u3055
  8055     1721  0870               	movf	___aldiv@divisor,w
  8056     1722  0274               	subwf	___aldiv@dividend,w
  8057     1723                     u3055:
  8058     1723  1C03               	skipc
  8059     1724  2F26               	goto	u3051
  8060     1725  2F27               	goto	u3050
  8061     1726                     u3051:
  8062     1726  2F36               	goto	l2402
  8063     1727                     u3050:
  8064     1727                     l2398:
  8065     1727  0870               	movf	___aldiv@divisor,w
  8066     1728  02F4               	subwf	___aldiv@dividend,f
  8067     1729  0871               	movf	___aldiv@divisor+1,w
  8068     172A  1C03               	skipc
  8069     172B  0F71               	incfsz	___aldiv@divisor+1,w
  8070     172C  02F5               	subwf	___aldiv@dividend+1,f
  8071     172D  0872               	movf	___aldiv@divisor+2,w
  8072     172E  1C03               	skipc
  8073     172F  0F72               	incfsz	___aldiv@divisor+2,w
  8074     1730  02F6               	subwf	___aldiv@dividend+2,f
  8075     1731  0873               	movf	___aldiv@divisor+3,w
  8076     1732  1C03               	skipc
  8077     1733  0F73               	incfsz	___aldiv@divisor+3,w
  8078     1734  02F7               	subwf	___aldiv@dividend+3,f
  8079     1735                     l2400:
  8080     1735  1422               	bsf	___aldiv@quotient,0
  8081     1736                     l2402:
  8082     1736  3001               	movlw	1
  8083     1737                     u3065:
  8084     1737  1003               	clrc
  8085     1738  0CF3               	rrf	___aldiv@divisor+3,f
  8086     1739  0CF2               	rrf	___aldiv@divisor+2,f
  8087     173A  0CF1               	rrf	___aldiv@divisor+1,f
  8088     173B  0CF0               	rrf	___aldiv@divisor,f
  8089     173C  3EFF               	addlw	-1
  8090     173D  1D03               	skipz
  8091     173E  2F37               	goto	u3065
  8092     173F                     l2404:
  8093     173F  3001               	movlw	1
  8094     1740  02A0               	subwf	___aldiv@counter,f
  8095     1741  1D03               	btfss	3,2
  8096     1742  2F44               	goto	u3071
  8097     1743  2F45               	goto	u3070
  8098     1744                     u3071:
  8099     1744  2F0C               	goto	l2394
  8100     1745                     u3070:
  8101     1745                     l2406:
  8102     1745  0821               	movf	___aldiv@sign,w
  8103     1746  1903               	btfsc	3,2
  8104     1747  2F49               	goto	u3081
  8105     1748  2F4A               	goto	u3080
  8106     1749                     u3081:
  8107     1749  2F55               	goto	l2410
  8108     174A                     u3080:
  8109     174A                     l2408:
  8110     174A  09A2               	comf	___aldiv@quotient,f
  8111     174B  09A3               	comf	___aldiv@quotient+1,f
  8112     174C  09A4               	comf	___aldiv@quotient+2,f
  8113     174D  09A5               	comf	___aldiv@quotient+3,f
  8114     174E  0AA2               	incf	___aldiv@quotient,f
  8115     174F  1903               	skipnz
  8116     1750  0AA3               	incf	___aldiv@quotient+1,f
  8117     1751  1903               	skipnz
  8118     1752  0AA4               	incf	___aldiv@quotient+2,f
  8119     1753  1903               	skipnz
  8120     1754  0AA5               	incf	___aldiv@quotient+3,f
  8121     1755                     l2410:
  8122     1755  0825               	movf	___aldiv@quotient+3,w
  8123     1756  00F3               	movwf	?___aldiv+3
  8124     1757  0824               	movf	___aldiv@quotient+2,w
  8125     1758  00F2               	movwf	?___aldiv+2
  8126     1759  0823               	movf	___aldiv@quotient+1,w
  8127     175A  00F1               	movwf	?___aldiv+1
  8128     175B  0822               	movf	___aldiv@quotient,w
  8129     175C  00F0               	movwf	?___aldiv
  8130     175D                     l356:
  8131     175D  0008               	return
  8132     175E                     __end_of___aldiv:
  8133                           
  8134                           	psect	text22
  8135     133C                     __ptext22:	
  8136 ;; *************** function _LCD_String_xy *****************
  8137 ;; Defined at:
  8138 ;;		line 113 in file "LCD.c"
  8139 ;; Parameters:    Size  Location     Type
  8140 ;;  row             1    wreg     unsigned char 
  8141 ;;  pos             1    5[COMMON] unsigned char 
  8142 ;;  msg             2    6[COMMON] PTR const unsigned char 
  8143 ;;		 -> main@MER(4), main@CHOQUE(10), main@GAS(4), STR_4(3), 
  8144 ;;		 -> STR_1(14), 
  8145 ;; Auto vars:     Size  Location     Type
  8146 ;;  row             1    8[COMMON] unsigned char 
  8147 ;;  location        1    9[COMMON] unsigned char 
  8148 ;; Return value:  Size  Location     Type
  8149 ;;                  1    wreg      void 
  8150 ;; Registers used:
  8151 ;;		wreg, fsr0l, fsr0h, status,2, status,0, btemp+1, pclath, cstack
  8152 ;; Tracked objects:
  8153 ;;		On entry : 0/0
  8154 ;;		On exit  : 0/0
  8155 ;;		Unchanged: 0/0
  8156 ;; Data sizes:     COMMON   BANK0   BANK1   BANK3   BANK2
  8157 ;;      Params:         3       0       0       0       0
  8158 ;;      Locals:         2       0       0       0       0
  8159 ;;      Temps:          0       0       0       0       0
  8160 ;;      Totals:         5       0       0       0       0
  8161 ;;Total ram usage:        5 bytes
  8162 ;; Hardware stack levels used: 1
  8163 ;; Hardware stack levels required when called: 2
  8164 ;; This function calls:
  8165 ;;		_LCD_Command
  8166 ;;		_LCD_String
  8167 ;; This function is called by:
  8168 ;;		_main
  8169 ;; This function uses a non-reentrant model
  8170 ;;
  8171                           
  8172     133C                     _LCD_String_xy:	
  8173                           ;psect for function _LCD_String_xy
  8174                           
  8175                           
  8176                           ;incstack = 0
  8177                           ; Regs used in _LCD_String_xy: [wreg-fsr0h+status,2+status,0+btemp+1+pclath+cstack]
  8178                           ;LCD_String_xy@row stored from wreg
  8179     133C  00F8               	movwf	LCD_String_xy@row
  8180     133D                     l2570:
  8181     133D                     l2572:
  8182                           
  8183                           ;LCD.c: 116:     if(row<=1)
  8184     133D  3002               	movlw	2
  8185     133E  0278               	subwf	LCD_String_xy@row,w
  8186     133F  1803               	skipnc
  8187     1340  2B42               	goto	u3471
  8188     1341  2B43               	goto	u3470
  8189     1342                     u3471:
  8190     1342  2B4E               	goto	l2578
  8191     1343                     u3470:
  8192     1343                     l2574:
  8193                           
  8194                           ;LCD.c: 117:     {;LCD.c: 118:         location=(0x80) | ((pos) & 0x0f);
  8195     1343  0875               	movf	LCD_String_xy@pos,w
  8196     1344  390F               	andlw	15
  8197     1345  3880               	iorlw	128
  8198     1346  00F9               	movwf	LCD_String_xy@location
  8199     1347                     l2576:
  8200                           
  8201                           ;LCD.c: 119:         LCD_Command(location);
  8202     1347  0879               	movf	LCD_String_xy@location,w
  8203     1348  160A  118A  240B  160A  118A  	fcall	_LCD_Command
  8204                           
  8205                           ;LCD.c: 120:     }
  8206     134D  2B58               	goto	l2582
  8207     134E                     l2578:
  8208                           
  8209                           ;LCD.c: 122:     {;LCD.c: 123:         location=(0xC0) | ((pos) & 0x0f);
  8210     134E  0875               	movf	LCD_String_xy@pos,w
  8211     134F  390F               	andlw	15
  8212     1350  38C0               	iorlw	192
  8213     1351  00F9               	movwf	LCD_String_xy@location
  8214     1352                     l2580:
  8215                           
  8216                           ;LCD.c: 124:         LCD_Command(location);
  8217     1352  0879               	movf	LCD_String_xy@location,w
  8218     1353  160A  118A  240B  160A  118A  	fcall	_LCD_Command
  8219     1358                     l2582:
  8220                           
  8221                           ;LCD.c: 128:     LCD_String(msg);
  8222     1358  0876               	movf	LCD_String_xy@msg,w
  8223     1359  00F3               	movwf	LCD_String@msg
  8224     135A  0877               	movf	LCD_String_xy@msg+1,w
  8225     135B  00F4               	movwf	LCD_String@msg+1
  8226     135C  160A  118A  2316  160A  118A  	fcall	_LCD_String
  8227     1361                     l117:
  8228     1361  0008               	return
  8229     1362                     __end_of_LCD_String_xy:
  8230                           
  8231                           	psect	text23
  8232     1316                     __ptext23:	
  8233 ;; *************** function _LCD_String *****************
  8234 ;; Defined at:
  8235 ;;		line 103 in file "LCD.c"
  8236 ;; Parameters:    Size  Location     Type
  8237 ;;  msg             2    3[COMMON] PTR const unsigned char 
  8238 ;;		 -> STR_16(3), main@MER(4), main@CHOQUE(10), main@GAS(4), 
  8239 ;;		 -> STR_5(3), STR_4(3), main@Temperature(10), STR_1(14), 
  8240 ;; Auto vars:     Size  Location     Type
  8241 ;;		None
  8242 ;; Return value:  Size  Location     Type
  8243 ;;                  1    wreg      void 
  8244 ;; Registers used:
  8245 ;;		wreg, fsr0l, fsr0h, status,2, status,0, btemp+1, pclath, cstack
  8246 ;; Tracked objects:
  8247 ;;		On entry : 0/0
  8248 ;;		On exit  : 0/0
  8249 ;;		Unchanged: 0/0
  8250 ;; Data sizes:     COMMON   BANK0   BANK1   BANK3   BANK2
  8251 ;;      Params:         2       0       0       0       0
  8252 ;;      Locals:         0       0       0       0       0
  8253 ;;      Temps:          0       0       0       0       0
  8254 ;;      Totals:         2       0       0       0       0
  8255 ;;Total ram usage:        2 bytes
  8256 ;; Hardware stack levels used: 1
  8257 ;; Hardware stack levels required when called: 1
  8258 ;; This function calls:
  8259 ;;		_LCD_Char
  8260 ;; This function is called by:
  8261 ;;		_main
  8262 ;;		_LCD_String_xy
  8263 ;; This function uses a non-reentrant model
  8264 ;;
  8265                           
  8266     1316                     _LCD_String:	
  8267                           ;psect for function _LCD_String
  8268                           
  8269     1316                     l2342:	
  8270                           ;incstack = 0
  8271                           ; Regs used in _LCD_String: [wreg-fsr0h+status,2+status,0+btemp+1+pclath+cstack]
  8272                           
  8273                           
  8274                           ;LCD.c: 103: void LCD_String(const char *msg);LCD.c: 104: {;LCD.c: 105:  while((*msg)!=0
      +                          )
  8275     1316  2B2B               	goto	l2348
  8276     1317                     l2344:
  8277                           
  8278                           ;LCD.c: 106:  {;LCD.c: 107:    LCD_Char(*msg);
  8279     1317  0874               	movf	LCD_String@msg+1,w
  8280     1318  00FF               	movwf	btemp+1
  8281     1319  0873               	movf	LCD_String@msg,w
  8282     131A  0084               	movwf	4
  8283     131B  160A  118A  2000  160A  118A  	fcall	stringtab
  8284     1320  160A  118A  2441  160A  118A  	fcall	_LCD_Char
  8285     1325                     l2346:
  8286                           
  8287                           ;LCD.c: 108:    msg++;
  8288     1325  3001               	movlw	1
  8289     1326  07F3               	addwf	LCD_String@msg,f
  8290     1327  1803               	skipnc
  8291     1328  0AF4               	incf	LCD_String@msg+1,f
  8292     1329  3000               	movlw	0
  8293     132A  07F4               	addwf	LCD_String@msg+1,f
  8294     132B                     l2348:
  8295                           
  8296                           ;LCD.c: 105:  while((*msg)!=0)
  8297     132B  0874               	movf	LCD_String@msg+1,w
  8298     132C  1283               	bcf	3,5	;RP0=0, select bank0
  8299     132D  1303               	bcf	3,6	;RP1=0, select bank0
  8300     132E  00FF               	movwf	btemp+1
  8301     132F  0873               	movf	LCD_String@msg,w
  8302     1330  0084               	movwf	4
  8303     1331  160A  118A  2000  160A  118A  	fcall	stringtab
  8304     1336  3A00               	xorlw	0
  8305     1337  1D03               	skipz
  8306     1338  2B3A               	goto	u2961
  8307     1339  2B3B               	goto	u2960
  8308     133A                     u2961:
  8309     133A  2B17               	goto	l2344
  8310     133B                     u2960:
  8311     133B                     l112:
  8312     133B  0008               	return
  8313     133C                     __end_of_LCD_String:
  8314                           
  8315                           	psect	text24
  8316     1441                     __ptext24:	
  8317 ;; *************** function _LCD_Char *****************
  8318 ;; Defined at:
  8319 ;;		line 88 in file "LCD.c"
  8320 ;; Parameters:    Size  Location     Type
  8321 ;;  dat             1    wreg     unsigned char 
  8322 ;; Auto vars:     Size  Location     Type
  8323 ;;  dat             1    2[COMMON] unsigned char 
  8324 ;; Return value:  Size  Location     Type
  8325 ;;                  1    wreg      void 
  8326 ;; Registers used:
  8327 ;;		wreg, status,2, status,0
  8328 ;; Tracked objects:
  8329 ;;		On entry : 0/0
  8330 ;;		On exit  : 0/0
  8331 ;;		Unchanged: 0/0
  8332 ;; Data sizes:     COMMON   BANK0   BANK1   BANK3   BANK2
  8333 ;;      Params:         0       0       0       0       0
  8334 ;;      Locals:         1       0       0       0       0
  8335 ;;      Temps:          2       0       0       0       0
  8336 ;;      Totals:         3       0       0       0       0
  8337 ;;Total ram usage:        3 bytes
  8338 ;; Hardware stack levels used: 1
  8339 ;; This function calls:
  8340 ;;		Nothing
  8341 ;; This function is called by:
  8342 ;;		_LCD_String
  8343 ;; This function uses a non-reentrant model
  8344 ;;
  8345                           
  8346     1441                     _LCD_Char:	
  8347                           ;psect for function _LCD_Char
  8348                           
  8349                           
  8350                           ;incstack = 0
  8351                           ; Regs used in _LCD_Char: [wreg+status,2+status,0]
  8352                           ;LCD_Char@dat stored from wreg
  8353     1441  00F2               	movwf	LCD_Char@dat
  8354     1442                     l1976:
  8355                           
  8356                           ;LCD.c: 88: void LCD_Char(unsigned char dat);LCD.c: 89: {;LCD.c: 90:  PORTD = (PORTD & 0
      +                          x0f) | (0xF0 & dat);
  8357     1442  30F0               	movlw	240
  8358     1443  0572               	andwf	LCD_Char@dat,w
  8359     1444  00F0               	movwf	??_LCD_Char
  8360     1445  1283               	bcf	3,5	;RP0=0, select bank0
  8361     1446  1303               	bcf	3,6	;RP1=0, select bank0
  8362     1447  0808               	movf	8,w	;volatile
  8363     1448  390F               	andlw	15
  8364     1449  0470               	iorwf	??_LCD_Char,w
  8365     144A  0088               	movwf	8	;volatile
  8366     144B                     l1978:
  8367                           
  8368                           ;LCD.c: 91:  PORTDbits.RD0 = 1;
  8369     144B  1408               	bsf	8,0	;volatile
  8370     144C                     l1980:
  8371                           
  8372                           ;LCD.c: 92:  PORTDbits.RD1 = 1;
  8373     144C  1488               	bsf	8,1	;volatile
  8374     144D                     l1982:
  8375                           
  8376                           ;LCD.c: 93:  __nop();
  8377     144D  0000               	nop
  8378     144E                     l1984:
  8379                           
  8380                           ;LCD.c: 94:  PORTDbits.RD1 = 0;
  8381     144E  1283               	bcf	3,5	;RP0=0, select bank0
  8382     144F  1303               	bcf	3,6	;RP1=0, select bank0
  8383     1450  1088               	bcf	8,1	;volatile
  8384     1451                     l1986:
  8385                           
  8386                           ;LCD.c: 95:  _delay((unsigned long)((1)*(8000000/4000.0)));
  8387     1451  3003               	movlw	3
  8388     1452  00F1               	movwf	??_LCD_Char+1
  8389     1453  3097               	movlw	151
  8390     1454  00F0               	movwf	??_LCD_Char
  8391     1455                     u5457:
  8392     1455  0BF0               	decfsz	??_LCD_Char,f
  8393     1456  2C55               	goto	u5457
  8394     1457  0BF1               	decfsz	??_LCD_Char+1,f
  8395     1458  2C55               	goto	u5457
  8396     1459  2C5A               	nop2
  8397     145A                     l1988:
  8398                           
  8399                           ;LCD.c: 96:     PORTD = (unsigned char)((PORTD & 0x0f) | (dat<<4));
  8400     145A  0872               	movf	LCD_Char@dat,w
  8401     145B  00F0               	movwf	??_LCD_Char
  8402     145C  3004               	movlw	4
  8403     145D                     u2095:
  8404     145D  1003               	clrc
  8405     145E  0DF0               	rlf	??_LCD_Char,f
  8406     145F  3EFF               	addlw	-1
  8407     1460  1D03               	skipz
  8408     1461  2C5D               	goto	u2095
  8409     1462  1283               	bcf	3,5	;RP0=0, select bank0
  8410     1463  1303               	bcf	3,6	;RP1=0, select bank0
  8411     1464  0808               	movf	8,w	;volatile
  8412     1465  390F               	andlw	15
  8413     1466  0470               	iorwf	??_LCD_Char,w
  8414     1467  0088               	movwf	8	;volatile
  8415     1468                     l1990:
  8416                           
  8417                           ;LCD.c: 97:  PORTDbits.RD1 = 1;
  8418     1468  1488               	bsf	8,1	;volatile
  8419     1469                     l1992:
  8420                           
  8421                           ;LCD.c: 98:  __nop();
  8422     1469  0000               	nop
  8423     146A                     l1994:
  8424                           
  8425                           ;LCD.c: 99:  PORTDbits.RD1 = 0;
  8426     146A  1283               	bcf	3,5	;RP0=0, select bank0
  8427     146B  1303               	bcf	3,6	;RP1=0, select bank0
  8428     146C  1088               	bcf	8,1	;volatile
  8429                           
  8430                           ;LCD.c: 100:  _delay((unsigned long)((3)*(8000000/4000.0)));
  8431     146D  3008               	movlw	8
  8432     146E  00F1               	movwf	??_LCD_Char+1
  8433     146F  30C9               	movlw	201
  8434     1470  00F0               	movwf	??_LCD_Char
  8435     1471                     u5467:
  8436     1471  0BF0               	decfsz	??_LCD_Char,f
  8437     1472  2C71               	goto	u5467
  8438     1473  0BF1               	decfsz	??_LCD_Char+1,f
  8439     1474  2C71               	goto	u5467
  8440     1475  2C76               	nop2
  8441     1476                     l106:
  8442     1476  0008               	return
  8443     1477                     __end_of_LCD_Char:
  8444                           
  8445                           	psect	text25
  8446     13AF                     __ptext25:	
  8447 ;; *************** function _LCD_Init *****************
  8448 ;; Defined at:
  8449 ;;		line 35 in file "LCD.c"
  8450 ;; Parameters:    Size  Location     Type
  8451 ;;		None
  8452 ;; Auto vars:     Size  Location     Type
  8453 ;;		None
  8454 ;; Return value:  Size  Location     Type
  8455 ;;                  1    wreg      void 
  8456 ;; Registers used:
  8457 ;;		wreg, status,2, status,0, pclath, cstack
  8458 ;; Tracked objects:
  8459 ;;		On entry : 0/0
  8460 ;;		On exit  : 0/0
  8461 ;;		Unchanged: 0/0
  8462 ;; Data sizes:     COMMON   BANK0   BANK1   BANK3   BANK2
  8463 ;;      Params:         0       0       0       0       0
  8464 ;;      Locals:         0       0       0       0       0
  8465 ;;      Temps:          2       0       0       0       0
  8466 ;;      Totals:         2       0       0       0       0
  8467 ;;Total ram usage:        2 bytes
  8468 ;; Hardware stack levels used: 1
  8469 ;; Hardware stack levels required when called: 1
  8470 ;; This function calls:
  8471 ;;		_LCD_Command
  8472 ;; This function is called by:
  8473 ;;		_main
  8474 ;; This function uses a non-reentrant model
  8475 ;;
  8476                           
  8477     13AF                     _LCD_Init:	
  8478                           ;psect for function _LCD_Init
  8479                           
  8480     13AF                     l2556:	
  8481                           ;incstack = 0
  8482                           ; Regs used in _LCD_Init: [wreg+status,2+status,0+pclath+cstack]
  8483                           
  8484                           
  8485                           ;LCD.c: 37:     TRISD = 0;
  8486     13AF  1683               	bsf	3,5	;RP0=1, select bank1
  8487     13B0  1303               	bcf	3,6	;RP1=0, select bank1
  8488     13B1  0188               	clrf	8	;volatile
  8489     13B2                     l2558:
  8490                           
  8491                           ;LCD.c: 38:     _delay((unsigned long)((15)*(8000000/4000.0)));
  8492     13B2  3027               	movlw	39
  8493     13B3  00F4               	movwf	??_LCD_Init+1
  8494     13B4  30F5               	movlw	245
  8495     13B5  00F3               	movwf	??_LCD_Init
  8496     13B6                     u5477:
  8497     13B6  0BF3               	decfsz	??_LCD_Init,f
  8498     13B7  2BB6               	goto	u5477
  8499     13B8  0BF4               	decfsz	??_LCD_Init+1,f
  8500     13B9  2BB6               	goto	u5477
  8501     13BA                     l2560:
  8502                           
  8503                           ;LCD.c: 39:     LCD_Command(0x02);
  8504     13BA  3002               	movlw	2
  8505     13BB  160A  118A  240B  160A  118A  	fcall	_LCD_Command
  8506     13C0                     l2562:
  8507                           
  8508                           ;LCD.c: 40:     LCD_Command(0x28);
  8509     13C0  3028               	movlw	40
  8510     13C1  160A  118A  240B  160A  118A  	fcall	_LCD_Command
  8511     13C6                     l2564:
  8512                           
  8513                           ;LCD.c: 41:     LCD_Command(0x01);
  8514     13C6  3001               	movlw	1
  8515     13C7  160A  118A  240B  160A  118A  	fcall	_LCD_Command
  8516     13CC                     l2566:
  8517                           
  8518                           ;LCD.c: 42:     LCD_Command(0x0c);
  8519     13CC  300C               	movlw	12
  8520     13CD  160A  118A  240B  160A  118A  	fcall	_LCD_Command
  8521     13D2                     l2568:
  8522                           
  8523                           ;LCD.c: 43:     LCD_Command(0x06);
  8524     13D2  3006               	movlw	6
  8525     13D3  160A  118A  240B  160A  118A  	fcall	_LCD_Command
  8526     13D8                     l100:
  8527     13D8  0008               	return
  8528     13D9                     __end_of_LCD_Init:
  8529                           
  8530                           	psect	text26
  8531     0014                     __ptext26:	
  8532 ;; *************** function _LCD_Clear *****************
  8533 ;; Defined at:
  8534 ;;		line 144 in file "LCD.c"
  8535 ;; Parameters:    Size  Location     Type
  8536 ;;		None
  8537 ;; Auto vars:     Size  Location     Type
  8538 ;;		None
  8539 ;; Return value:  Size  Location     Type
  8540 ;;                  1    wreg      void 
  8541 ;; Registers used:
  8542 ;;		wreg, status,2, status,0, pclath, cstack
  8543 ;; Tracked objects:
  8544 ;;		On entry : 0/0
  8545 ;;		On exit  : 0/0
  8546 ;;		Unchanged: 0/0
  8547 ;; Data sizes:     COMMON   BANK0   BANK1   BANK3   BANK2
  8548 ;;      Params:         0       0       0       0       0
  8549 ;;      Locals:         0       0       0       0       0
  8550 ;;      Temps:          2       0       0       0       0
  8551 ;;      Totals:         2       0       0       0       0
  8552 ;;Total ram usage:        2 bytes
  8553 ;; Hardware stack levels used: 1
  8554 ;; Hardware stack levels required when called: 1
  8555 ;; This function calls:
  8556 ;;		_LCD_Command
  8557 ;; This function is called by:
  8558 ;;		_main
  8559 ;; This function uses a non-reentrant model
  8560 ;;
  8561                           
  8562     0014                     _LCD_Clear:	
  8563                           ;psect for function _LCD_Clear
  8564                           
  8565     0014                     l2584:	
  8566                           ;incstack = 0
  8567                           ; Regs used in _LCD_Clear: [wreg+status,2+status,0+pclath+cstack]
  8568                           
  8569                           
  8570                           ;LCD.c: 146:     LCD_Command(0x01);
  8571     0014  3001               	movlw	1
  8572     0015  160A  118A  240B  120A  118A  	fcall	_LCD_Command
  8573     001A                     l2586:
  8574                           
  8575                           ;LCD.c: 147:     _delay((unsigned long)((3)*(8000000/4000.0)));
  8576     001A  3008               	movlw	8
  8577     001B  00F4               	movwf	??_LCD_Clear+1
  8578     001C  30C9               	movlw	201
  8579     001D  00F3               	movwf	??_LCD_Clear
  8580     001E                     u5487:
  8581     001E  0BF3               	decfsz	??_LCD_Clear,f
  8582     001F  281E               	goto	u5487
  8583     0020  0BF4               	decfsz	??_LCD_Clear+1,f
  8584     0021  281E               	goto	u5487
  8585     0022  2823               	nop2
  8586     0023                     l120:
  8587     0023  0008               	return
  8588     0024                     __end_of_LCD_Clear:
  8589                           
  8590                           	psect	text27
  8591     140B                     __ptext27:	
  8592 ;; *************** function _LCD_Command *****************
  8593 ;; Defined at:
  8594 ;;		line 59 in file "LCD.c"
  8595 ;; Parameters:    Size  Location     Type
  8596 ;;  cmd             1    wreg     unsigned char 
  8597 ;; Auto vars:     Size  Location     Type
  8598 ;;  cmd             1    2[COMMON] unsigned char 
  8599 ;; Return value:  Size  Location     Type
  8600 ;;                  1    wreg      void 
  8601 ;; Registers used:
  8602 ;;		wreg, status,2, status,0
  8603 ;; Tracked objects:
  8604 ;;		On entry : 0/0
  8605 ;;		On exit  : 0/0
  8606 ;;		Unchanged: 0/0
  8607 ;; Data sizes:     COMMON   BANK0   BANK1   BANK3   BANK2
  8608 ;;      Params:         0       0       0       0       0
  8609 ;;      Locals:         1       0       0       0       0
  8610 ;;      Temps:          2       0       0       0       0
  8611 ;;      Totals:         3       0       0       0       0
  8612 ;;Total ram usage:        3 bytes
  8613 ;; Hardware stack levels used: 1
  8614 ;; This function calls:
  8615 ;;		Nothing
  8616 ;; This function is called by:
  8617 ;;		_LCD_Init
  8618 ;;		_LCD_String_xy
  8619 ;;		_LCD_Clear
  8620 ;; This function uses a non-reentrant model
  8621 ;;
  8622                           
  8623     140B                     _LCD_Command:	
  8624                           ;psect for function _LCD_Command
  8625                           
  8626                           
  8627                           ;incstack = 0
  8628                           ; Regs used in _LCD_Command: [wreg+status,2+status,0]
  8629                           ;LCD_Command@cmd stored from wreg
  8630     140B  00F2               	movwf	LCD_Command@cmd
  8631     140C                     l2350:
  8632                           
  8633                           ;LCD.c: 59: void LCD_Command(unsigned char cmd );LCD.c: 60: {;LCD.c: 61:  PORTD = (PORTD
      +                           & 0x0f) |(0xF0 & cmd);
  8634     140C  30F0               	movlw	240
  8635     140D  0572               	andwf	LCD_Command@cmd,w
  8636     140E  00F0               	movwf	??_LCD_Command
  8637     140F  1283               	bcf	3,5	;RP0=0, select bank0
  8638     1410  1303               	bcf	3,6	;RP1=0, select bank0
  8639     1411  0808               	movf	8,w	;volatile
  8640     1412  390F               	andlw	15
  8641     1413  0470               	iorwf	??_LCD_Command,w
  8642     1414  0088               	movwf	8	;volatile
  8643     1415                     l2352:
  8644                           
  8645                           ;LCD.c: 62:  PORTDbits.RD0 = 0;
  8646     1415  1008               	bcf	8,0	;volatile
  8647     1416                     l2354:
  8648                           
  8649                           ;LCD.c: 63:  PORTDbits.RD1 = 1;
  8650     1416  1488               	bsf	8,1	;volatile
  8651     1417                     l2356:
  8652                           
  8653                           ;LCD.c: 64:  __nop();
  8654     1417  0000               	nop
  8655     1418                     l2358:
  8656                           
  8657                           ;LCD.c: 65:  PORTDbits.RD1 = 0;
  8658     1418  1283               	bcf	3,5	;RP0=0, select bank0
  8659     1419  1303               	bcf	3,6	;RP1=0, select bank0
  8660     141A  1088               	bcf	8,1	;volatile
  8661     141B                     l2360:
  8662                           
  8663                           ;LCD.c: 66:  _delay((unsigned long)((1)*(8000000/4000.0)));
  8664     141B  3003               	movlw	3
  8665     141C  00F1               	movwf	??_LCD_Command+1
  8666     141D  3097               	movlw	151
  8667     141E  00F0               	movwf	??_LCD_Command
  8668     141F                     u5497:
  8669     141F  0BF0               	decfsz	??_LCD_Command,f
  8670     1420  2C1F               	goto	u5497
  8671     1421  0BF1               	decfsz	??_LCD_Command+1,f
  8672     1422  2C1F               	goto	u5497
  8673     1423  2C24               	nop2
  8674     1424                     l2362:
  8675                           
  8676                           ;LCD.c: 67:     PORTD = (unsigned char)((PORTD & 0x0f) | (cmd<<4));
  8677     1424  0872               	movf	LCD_Command@cmd,w
  8678     1425  00F0               	movwf	??_LCD_Command
  8679     1426  3004               	movlw	4
  8680     1427                     u2975:
  8681     1427  1003               	clrc
  8682     1428  0DF0               	rlf	??_LCD_Command,f
  8683     1429  3EFF               	addlw	-1
  8684     142A  1D03               	skipz
  8685     142B  2C27               	goto	u2975
  8686     142C  1283               	bcf	3,5	;RP0=0, select bank0
  8687     142D  1303               	bcf	3,6	;RP1=0, select bank0
  8688     142E  0808               	movf	8,w	;volatile
  8689     142F  390F               	andlw	15
  8690     1430  0470               	iorwf	??_LCD_Command,w
  8691     1431  0088               	movwf	8	;volatile
  8692     1432                     l2364:
  8693                           
  8694                           ;LCD.c: 68:  PORTDbits.RD1 = 1;
  8695     1432  1488               	bsf	8,1	;volatile
  8696     1433                     l2366:
  8697                           
  8698                           ;LCD.c: 69:  __nop();
  8699     1433  0000               	nop
  8700     1434                     l2368:
  8701                           
  8702                           ;LCD.c: 70:  PORTDbits.RD1 = 0;
  8703     1434  1283               	bcf	3,5	;RP0=0, select bank0
  8704     1435  1303               	bcf	3,6	;RP1=0, select bank0
  8705     1436  1088               	bcf	8,1	;volatile
  8706                           
  8707                           ;LCD.c: 71:  _delay((unsigned long)((3)*(8000000/4000.0)));
  8708     1437  3008               	movlw	8
  8709     1438  00F1               	movwf	??_LCD_Command+1
  8710     1439  30C9               	movlw	201
  8711     143A  00F0               	movwf	??_LCD_Command
  8712     143B                     u5507:
  8713     143B  0BF0               	decfsz	??_LCD_Command,f
  8714     143C  2C3B               	goto	u5507
  8715     143D  0BF1               	decfsz	??_LCD_Command+1,f
  8716     143E  2C3B               	goto	u5507
  8717     143F  2C40               	nop2
  8718     1440                     l103:
  8719     1440  0008               	return
  8720     1441                     __end_of_LCD_Command:
  8721     007E                     btemp	set	126	;btemp
  8722     007E                     wtemp0	set	126
  8723                           
  8724                           	psect	config
  8725                           
  8726                           ;Config register CONFIG1 @ 0x2007
  8727                           ;	Oscillator Selection bits
  8728                           ;	FOSC = INTRC_CLKOUT, INTOSC oscillator: CLKOUT function on RA6/OSC2/CLKOUT pin, I/O fu
      +                          nction on RA7/OSC1/CLKIN
  8729                           ;	Watchdog Timer Enable bit
  8730                           ;	WDTE = OFF, WDT disabled and can be enabled by SWDTEN bit of the WDTCON register
  8731                           ;	Power-up Timer Enable bit
  8732                           ;	PWRTE = OFF, PWRT disabled
  8733                           ;	RE3/MCLR pin function select bit
  8734                           ;	MCLRE = OFF, RE3/MCLR pin function is digital input, MCLR internally tied to VDD
  8735                           ;	Code Protection bit
  8736                           ;	CP = OFF, Program memory code protection is disabled
  8737                           ;	Data Code Protection bit
  8738                           ;	CPD = OFF, Data memory code protection is disabled
  8739                           ;	Brown Out Reset Selection bits
  8740                           ;	BOREN = OFF, BOR disabled
  8741                           ;	Internal External Switchover bit
  8742                           ;	IESO = OFF, Internal/External Switchover mode is disabled
  8743                           ;	Fail-Safe Clock Monitor Enabled bit
  8744                           ;	FCMEN = OFF, Fail-Safe Clock Monitor is disabled
  8745                           ;	Low Voltage Programming Enable bit
  8746                           ;	LVP = OFF, RB3 pin has digital I/O, HV on MCLR must be used for programming
  8747                           ;	In-Circuit Debugger Mode bit
  8748                           ;	DEBUG = 0x1, unprogrammed default
  8749     2007                     	org	8199
  8750     2007  20D5               	dw	8405
  8751                           
  8752                           ;Config register CONFIG2 @ 0x2008
  8753                           ;	Brown-out Reset Selection bit
  8754                           ;	BOR4V = BOR40V, Brown-out Reset set to 4.0V
  8755                           ;	Flash Program Memory Self Write Enable bits
  8756                           ;	WRT = OFF, Write protection off
  8757     2008                     	org	8200
  8758     2008  3FFF               	dw	16383

Data Sizes:
    Strings     120
    Constant    46
    Data        0
    BSS         60
    Persistent  0
    Stack       0

Auto Spaces:
    Space          Size  Autos    Used
    COMMON           14     14      14
    BANK0            80     79      80
    BANK1            80     35      38
    BANK3            96     48      54
    BANK2            96      0      50

Pointer List with Targets:

    strcpy@from	PTR const unsigned char  size(2) Largest target is 10
		 -> STR_14(CODE[4]), STR_13(CODE[4]), STR_11(CODE[10]), STR_10(CODE[7]), 
		 -> STR_8(CODE[4]), STR_7(CODE[4]), main@Temperature(BANK3[10]), 

    strcpy@to	PTR unsigned char  size(1) Largest target is 50
		 -> main@MER(BANK3[4]), main@CHOQUE(BANK3[10]), main@GAS(BANK3[4]), stringBT(BANK2[50]), 

    strcpy@cp	PTR unsigned char  size(1) Largest target is 50
		 -> main@MER(BANK3[4]), main@CHOQUE(BANK3[10]), main@GAS(BANK3[4]), stringBT(BANK2[50]), 

    strcat@from	PTR const unsigned char  size(2) Largest target is 10
		 -> STR_15(CODE[3]), main@MER(BANK3[4]), STR_12(CODE[2]), main@CHOQUE(BANK3[10]), 
		 -> STR_9(CODE[2]), main@GAS(BANK3[4]), STR_6(CODE[2]), 

    strcat@to	PTR unsigned char  size(1) Largest target is 50
		 -> stringBT(BANK2[50]), 

    strcat@cp	PTR unsigned char  size(1) Largest target is 50
		 -> stringBT(BANK2[50]), 

    frexp@eptr	PTR int  size(1) Largest target is 2
		 -> log@exponent(BANK0[2]), 

    eval_poly@d	PTR const  size(1) Largest target is 36
		 -> log@coeff(CODE[36]), 

    sprintf@f	PTR const unsigned char  size(1) Largest target is 6
		 -> STR_3(CODE[6]), 

    sprintf@sp	PTR unsigned char  size(1) Largest target is 10
		 -> main@Temperature(BANK3[10]), 

    sprintf@ap	PTR void [1] size(1) Largest target is 2
		 -> ?_sprintf(BANK1[2]), 

    USART_SendString@out	PTR const unsigned char  size(2) Largest target is 63
		 -> stringBT(BANK2[50]), STR_2(CODE[63]), 

    LCD_String_xy@msg	PTR const unsigned char  size(2) Largest target is 14
		 -> main@MER(BANK3[4]), main@CHOQUE(BANK3[10]), main@GAS(BANK3[4]), STR_4(CODE[3]), 
		 -> STR_1(CODE[14]), 

    LCD_String@msg	PTR const unsigned char  size(2) Largest target is 14
		 -> STR_16(CODE[3]), main@MER(BANK3[4]), main@CHOQUE(BANK3[10]), main@GAS(BANK3[4]), 
		 -> STR_5(CODE[3]), STR_4(CODE[3]), main@Temperature(BANK3[10]), STR_1(CODE[14]), 

    sp__strcat	PTR unsigned char  size(1) Largest target is 50
		 -> stringBT(BANK2[50]), 

    sp__strcpy	PTR unsigned char  size(1) Largest target is 50
		 -> main@MER(BANK3[4]), main@CHOQUE(BANK3[10]), main@GAS(BANK3[4]), stringBT(BANK2[50]), 


Critical Paths under _main in COMMON

    _main->___xxtofl
    _sprintf->___lwmod
    ___lwmod->___lwdiv
    _log->___xxtofl
    _log->_frexp
    _frexp->___fleq
    ___flmul->___xxtofl
    ___flmul->_frexp
    ___fladd->___xxtofl
    ___fladd->_frexp
    ___fldiv->___xxtofl
    ___fldiv->_frexp
    _USART_SendString->_USART_TxChar
    _USART_Init->___aldiv
    _LCD_String_xy->_LCD_String
    _LCD_String->_LCD_Char
    _LCD_Init->_LCD_Command
    _LCD_Clear->_LCD_Command

Critical Paths under _main in BANK0

    _main->___fltol
    _main->_log
    _sprintf->___fltol
    _log->___fladd
    _eval_poly->___fladd
    ___flmul->_frexp
    ___flsub->___fladd
    ___fladd->___fldiv
    ___fldiv->___flmul
    _USART_Init->___aldiv

Critical Paths under _main in BANK1

    _main->_sprintf
    _sprintf->___fltol
    _log->_eval_poly
    ___fltol->___flsub

Critical Paths under _main in BANK3

    None.

Critical Paths under _main in BANK2

    None.

Call Graph Tables:

 ---------------------------------------------------------------------------------
 (Depth) Function   	        Calls       Base Space   Used Autos Params    Refs
 ---------------------------------------------------------------------------------
 (0) _main                                                52    52      0   39863
                                             31 BANK1      4     4      0
                                              0 BANK3     48    48      0
                          _LCD_Clear
                           _LCD_Init
                         _LCD_String
                      _LCD_String_xy
                         _USART_Init
                   _USART_SendString
                            ___fladd
                            ___fldiv
                             ___flge
                            ___flsub
                            ___fltol
                           ___xxtofl
                                _log
                            _sprintf
                             _strcat
                             _strcpy
 ---------------------------------------------------------------------------------
 (2) _strcpy                                               5     3      2     838
                                              0 COMMON     5     3      2
 ---------------------------------------------------------------------------------
 (2) _strcat                                               5     3      2     861
                                              0 COMMON     5     3      2
 ---------------------------------------------------------------------------------
 (1) _sprintf                                             23    18      5    1280
                                             16 BANK1     15    10      5
                            ___fltol (ARG)
                            ___lwdiv
                            ___lwmod
 ---------------------------------------------------------------------------------
 (2) ___lwmod                                              6     2      4     311
                                              8 COMMON     6     2      4
                            ___lwdiv (ARG)
 ---------------------------------------------------------------------------------
 (2) ___lwdiv                                              8     4      4     314
                                              0 COMMON     8     4      4
 ---------------------------------------------------------------------------------
 (1) _log                                                  6     2      4   20498
                                             77 BANK0      2     2      0
                                             16 BANK1      4     0      4
                            ___fladd
                            ___fldiv (ARG)
                             ___fleq
                             ___flge
                            ___flmul
                           ___xxtofl
                          _eval_poly
                              _frexp
 ---------------------------------------------------------------------------------
 (2) _frexp                                                7     2      5    1132
                                             12 COMMON     2     2      0
                                              0 BANK0      5     0      5
                             ___fleq
 ---------------------------------------------------------------------------------
 (3) ___fleq                                              12     4      8     630
                                              0 COMMON    12     4      8
 ---------------------------------------------------------------------------------
 (2) _eval_poly                                           16     9      7    8579
                                              0 BANK1     16     9      7
                            ___fladd
                            ___fldiv (ARG)
                            ___flmul
 ---------------------------------------------------------------------------------
 (3) ___flmul                                             26    18      8    3853
                                              5 BANK0     26    18      8
                          __Umul8_16
                           ___xxtofl (ARG)
                              _frexp (ARG)
 ---------------------------------------------------------------------------------
 (4) __Umul8_16                                            9     7      2     980
                                              0 COMMON     9     7      2
 ---------------------------------------------------------------------------------
 (2) ___xxtofl                                            14    10      4     746
                                              0 COMMON    14    10      4
 ---------------------------------------------------------------------------------
 (2) ___flge                                              12     4      8     946
                                              0 COMMON    12     4      8
 ---------------------------------------------------------------------------------
 (1) ___fltol                                             10     6      4     381
                                             77 BANK0      2     2      0
                                              8 BANK1      8     4      4
                            ___flsub (ARG)
 ---------------------------------------------------------------------------------
 (1) ___flsub                                              8     0      8    4447
                                              0 BANK1      8     0      8
                            ___fladd
 ---------------------------------------------------------------------------------
 (3) ___fladd                                             20    12      8    4202
                                             57 BANK0     20    12      8
                            ___fldiv (ARG)
                            ___flmul (ARG)
                           ___xxtofl (ARG)
                              _frexp (ARG)
 ---------------------------------------------------------------------------------
 (1) ___fldiv                                             26    18      8    1577
                                             31 BANK0     26    18      8
                          __Umul8_16 (ARG)
                             ___fleq (ARG)
                             ___flge (ARG)
                            ___flmul (ARG)
                           ___xxtofl (ARG)
                              _frexp (ARG)
 ---------------------------------------------------------------------------------
 (1) _USART_SendString                                     2     0      2     219
                                              1 COMMON     2     0      2
                       _USART_TxChar
 ---------------------------------------------------------------------------------
 (2) _USART_TxChar                                         1     1      0      22
                                              0 COMMON     1     1      0
 ---------------------------------------------------------------------------------
 (1) _USART_Init                                          12     8      4     725
                                              9 COMMON     4     4      0
                                              6 BANK0      4     0      4
                            ___aldiv
 ---------------------------------------------------------------------------------
 (2) ___aldiv                                             15     7      8     604
                                              0 COMMON     9     1      8
                                              0 BANK0      6     6      0
 ---------------------------------------------------------------------------------
 (1) _LCD_String_xy                                        5     2      3    1788
                                              5 COMMON     5     2      3
                        _LCD_Command
                         _LCD_String
 ---------------------------------------------------------------------------------
 (2) _LCD_String                                           2     0      2     393
                                              3 COMMON     2     0      2
                           _LCD_Char
 ---------------------------------------------------------------------------------
 (3) _LCD_Char                                             3     3      0      44
                                              0 COMMON     3     3      0
 ---------------------------------------------------------------------------------
 (1) _LCD_Init                                             2     2      0      44
                                              3 COMMON     2     2      0
                        _LCD_Command
 ---------------------------------------------------------------------------------
 (1) _LCD_Clear                                            2     2      0      44
                                              3 COMMON     2     2      0
                        _LCD_Command
 ---------------------------------------------------------------------------------
 (2) _LCD_Command                                          3     3      0      44
                                              0 COMMON     3     3      0
 ---------------------------------------------------------------------------------
 Estimated maximum stack depth 4
 ---------------------------------------------------------------------------------

 Call Graph Graphs:

 _main (ROOT)
   _LCD_Clear
     _LCD_Command
   _LCD_Init
     _LCD_Command
   _LCD_String
     _LCD_Char
   _LCD_String_xy
     _LCD_Command
     _LCD_String
   _USART_Init
     ___aldiv
   _USART_SendString
     _USART_TxChar
   ___fladd
     ___fldiv (ARG)
       __Umul8_16 (ARG)
       ___fleq (ARG)
       ___flge (ARG)
       ___flmul (ARG)
         __Umul8_16
         ___xxtofl (ARG)
         _frexp (ARG)
           ___fleq
       ___xxtofl (ARG)
       _frexp (ARG)
     ___flmul (ARG)
     ___xxtofl (ARG)
     _frexp (ARG)
   ___fldiv
   ___flge
   ___flsub
     ___fladd
   ___fltol
     ___flsub (ARG)
   ___xxtofl
   _log
     ___fladd
     ___fldiv (ARG)
     ___fleq (ARG)
     ___flge (ARG)
     ___flmul (ARG)
     ___xxtofl (ARG)
     _eval_poly (ARG)
       ___fladd
       ___fldiv (ARG)
       ___flmul (ARG)
     _frexp (ARG)
   _sprintf
     ___fltol (ARG)
     ___lwdiv (ARG)
     ___lwmod (ARG)
       ___lwdiv (ARG)
   _strcat
   _strcpy

 Address spaces:
Name               Size   Autos  Total    Cost      Usage
BITCOMMON            E      0       0       0        0.0%
EEDATA             100      0       0       0        0.0%
NULL                 0      0       0       0        0.0%
CODE                 0      0       0       0        0.0%
COMMON               E      E       E       1      100.0%
BITSFR0              0      0       0       1        0.0%
SFR0                 0      0       0       1        0.0%
BITSFR1              0      0       0       2        0.0%
SFR1                 0      0       0       2        0.0%
STACK                0      0       0       2        0.0%
ABS                  0      0      EC       3        0.0%
BITBANK0            50      0       0       4        0.0%
BITSFR3              0      0       0       4        0.0%
SFR3                 0      0       0       4        0.0%
BANK0               50     4F      50       5      100.0%
BITSFR2              0      0       0       5        0.0%
SFR2                 0      0       0       5        0.0%
BITBANK1            50      0       0       6        0.0%
BANK1               50     23      26       7       47.5%
BITBANK3            60      0       0       8        0.0%
BANK3               60     30      36       9       56.2%
BITBANK2            60      0       0      10        0.0%
BANK2               60      0      32      11       52.1%
DATA                 0      0      EC      12        0.0%


Microchip Technology PIC Macro Assembler V2.40 build 20220703182018 
Symbol Table                                                                                   Wed Feb 08 11:19:10 2023

            ___fldiv@aexp 0058              ___fldiv@bexp 0057                         pc 0002  
            ___fldiv@sign 0050              ?_LCD_Command 0070                        l71 0640  
                      l72 065A                        l81 07AB                        l74 069D  
                      l75 06B6                        l68 03D7                        l77 06FA  
                      l78 0714                        fsr 0004               ?_LCD_String 0073  
     __Umul8_16@word_mpld 0076                       l100 13D8                       l103 1440  
                     l120 0023                       l112 133B                       l106 1476  
                     l117 1361                       l150 000B                       l153 0013  
                     l147 14F4                       l166 1387                       l346 16D5  
                     l450 1555                       l451 1571                       l356 175D  
                     l620 15D6                       l452 1586                       l605 0F95  
                     l277 0A8E                       l630 0C2B                       l455 177A  
                     l632 0DA7                       l616 0FF5                       l608 0FD3  
                     l720 0871                       l617 0FFF                       l553 1538  
                     l474 16A9                       l458 17E6                       l714 082E  
                     l467 16C0                       l459 17FF                       l563 14B0  
                     l652 0D8F                       l580 0E5F                       l716 08C3  
                     l477 16C0                       l741 0BD4                       l654 0D9D  
                     l646 0D1D                       l574 0E03                       l670 0368  
                     l727 088D                       l728 0899                       l753 099D  
                     l578 0E86                       l682 035C                       l595 0F4F  
                     l587 0FFF                       l691 13AE                       l676 02D8  
                     l599 0F73                       l759 1632                       l784 1315  
                     l689 139C                       l778 140A                       _log 0A8F  
                     fsr0 0004                       indf 0000              ___flmul@aexp 0033  
            ___flmul@bexp 0038              ___flmul@sign 0032              ___flmul@temp 003D  
            ___flmul@prod 0039               LCD_Char@dat 0072              ___fltol@exp1 006E  
                    l3100 0DE1                      l3110 0DF8                      l3102 0DE5  
                    l2400 1735                      l3200 0F2D                      l3120 0E11  
                    l3112 0DF9                      l3104 0DE6                      l2410 1755  
                    l2402 1736                      l3202 0F32                      l3130 0E1B  
                    l3122 0E13                      l3106 0DEB                      l3114 0DFB  
                    l3050 1392                      l2404 173F                      l3220 0F7A  
                    l3212 0F65                      l3204 0F41                      l3140 0E25  
                    l3132 0E1D                      l3124 0E15                      l3116 0E09  
                    l3108 0DF0                      l3052 1396                      l3300 0070  
                    l3060 1539                      l2350 140C                      l2342 1316  
                    l2406 1745                      l3230 0F88                      l3222 0F7C  
                    l3214 0F6E                      l3206 0F57                      l3142 0E27  
                    l3134 0E1F                      l3126 0E17                      l3118 0E0D  
                    l3150 0E2F                      l3054 13A5                      l3046 1389  
                    l3310 008B                      l3302 0078                      l3062 154D  
                    l2360 141B                      l2352 1415                      l2344 1317  
                    l2408 174A                      l2600 1371                      l3240 0F9F  
                    l3232 0F8C                      l3224 0F81                      l3216 0F72  
                    l3208 0F5C                      l3160 0E6C                      l3152 0E30  
                    l3144 0E29                      l3136 0E21                      l3128 0E19  
                    l3080 0DB6                      l3072 0DA8                      l3056 13AA  
                    l3048 138B                      l3400 0357                      l3320 0107  
                    l3312 0099                      l3304 007D                      l3064 1569  
                    l2440 1500                      l2362 1424                      l2354 1416  
                    l2346 1325                      l2370 000B                      l2602 1377  
                    l3250 0FDD                      l3242 0FAD                      l3234 0F92  
                    l3218 0F77                      l3226 0F83                      l3170 0E8A  
                    l3162 0E70                      l3154 0E47                      l3146 0E2B  
                    l3138 0E23                      l3082 0DBB                      l3090 0DCB  
                    l3074 0DAD                      l3410 178E                      l3402 0360  
                    l3330 0173                      l3322 0123                      l3314 00A6  
                    l3306 0082                      l3066 1583                      l2450 1526  
                    l2442 1507                      l2434 14F5                      l2364 1432  
                    l2356 1417                      l2348 132B                      l2380 16D9  
                    l2372 0011                      l3260 0FF1                      l3252 0FE5  
                    l3244 0FB1                      l3180 0EB3                      l3228 0F87  
                    l3172 0E8F                      l3164 0E71                      l3156 0E63  
                    l3148 0E2D                      l3092 0DD3                      l3084 0DC0  
                    l3076 0DB1                      l3420 17FC                      l3412 1796  
                    l3340 01FD                      l3332 0181                      l3324 013F  
                    l3316 00C1                      l3068 1585                      l3500 0A8F  
                    l2452 1527                      l2444 150B                      l2436 14F7  
                    l2460 1477                      l2700 12FF                      l2366 1433  
                    l2358 1418                      l2390 16FB                      l2382 16E4  
                    l2374 16C1                      l3262 0FFA                      l3254 0FEA  
                    l3246 0FCF                      l3238 0F9A                      l3190 0EC5  
                    l3182 0EB7                      l3166 0E7A                      l3158 0E6A  
                    l3094 0DD6                      l3086 0DC8                      l3078 0DB5  
                    l3422 17FE                      l3414 179A                      l3406 175E  
                    l3430 0816                      l3350 028D                      l3342 020B  
                    l3334 019E                      l3326 0148                      l3318 00DD  
                    l3270 002D                      l3502 0AAA                      l2454 152E  
                    l2446 150F                      l2438 14FD                      l2470 148F  
                    l2462 147D                      l2630 09AA                      l2710 13EE  
                    l2702 13DA                      l2368 1434                      l2560 13BA  
                    l2392 1708                      l2384 16E8                      l2376 16C4  
                    l2800 0C43                      l3264 0FFE                      l3256 0FEB  
                    l3248 0FD8                      l3192 0ECE                      l3184 0EBE  
                    l3176 0E98                      l3168 0E7E                      l3096 0DDC  
                    l3088 0DC9                      l2720 164B                      l3416 17BE  
                    l3408 1772                      l3440 0842                      l3432 0826  
                    l3360 02B2                      l3352 029B                      l3344 0236  
                    l3336 01B5                      l3328 0156                      l3280 0044  
                    l3272 0031                      l3512 0AE3                      l2448 1520  
                    l2456 1534                      l2472 1499                      l2464 1480  
                    l2640 09BF                      l2632 09AF                      l2712 13F4  
                    l2704 13DD                      l3600 05FC                      l2562 13C0  
                    l2570 133D                      l2394 170C                      l2386 16F0  
                    l2378 16C8                      l2810 0C5A                      l3258 0FEF  
                    l3186 0EC0                      l3178 0EAF                      l3194 0ED3  
                    l3098 0DDD                      l3522 1587                      l2730 1675  
                    l2722 1662                      l2714 1633                      l3418 17C2  
                    l3450 0878                      l3442 084F                      l3434 0836  
                    l3426 080D                      l3370 02D5                      l3354 02A4  
                    l3362 02B8                      l3346 025C                      l3338 01D2  
                    l3290 005B                      l3282 0046                      l3274 0032  
                    l3266 0024                      l3514 0B4A                      l3506 0AB9  
                    l2474 149F                      l2466 1487                      l2650 09F5  
                    l2634 09B4                      l2626 09A1                      l2706 13E1  
                    l3610 0630                      l3602 0606                      l3530 036D  
                    l2564 13C6                      l2556 13AF                      l2580 1352  
                    l2572 133D                      l2396 1715                      l2388 16F8  
                    l2820 0C86                      l2812 0C6C                      l2804 0C4C  
                    l3196 0EE9                      l3188 0EC4                      l3524 158B  
                    l2724 1665                      l2716 1640                      l3460 08B1  
                    l3452 0883                      l3444 0856                      l3428 0812  
                    l3380 02F4                      l3364 02BC                      l3356 02A8  
                    l3348 0284                      l3292 005C                      l3284 004E  
                    l3276 0037                      l3268 0029                      l3516 0B52  
                    l3508 0AD4                      l2476 14A6                      l2468 148B  
                    l2652 09F9                      l2636 09B6                      l2644 09C9  
                    l2628 09A4                      l2708 13EA                      l3620 068D  
                    l3612 0644                      l3604 0610                      l3540 037B  
                    l3532 0372                      l2566 13CC                      l2558 13B2  
                    l2582 1358                      l2574 1343                      l2398 1727  
                    l2590 14B5                      l2822 0C8B                      l2830 0CAB  
                    l2814 0C74                      l2806 0C51                      l3198 0F27  
                    l2726 166D                      l3462 08B6                      l3454 0887  
                    l3446 085A                      l3438 083F                      l3390 033A  
                    l3382 030D                      l3374 02DD                      l3366 02BD  
                    l3358 02A9                      l3294 0061                      l3286 0053  
                    l3278 003C                      l3470 15D7                      l3518 0B71  
                    l2478 14AC                      l2670 0A30                      l2662 0A04  
                    l2654 09FD                      l2646 09E9                      l2638 09BB  
                    l3630 06EA                      l3622 06A1                      l3614 066E  
                    l3606 0616                      l3550 0382                      l3542 037E  
                    l3534 0375                      l2584 0014                      l2568 13D2  
                    l2576 1347                      l2592 14EE                      l2840 0CD6  
                    l2832 0CBD                      l2824 0C9D                      l2816 0C7C  
                    l2760 0BDE                      l2744 169A                      l2736 167D  
                    l2728 1671                      l3464 08BA                      l3456 0891  
                    l3448 0868                      l3392 0344                      l3376 02E2  
                    l3384 0313                      l3368 02C1                      l3296 0066  
                    l3288 0057                      l3480 1620                      l3472 15F2  
                    l2680 0A6D                      l2672 0A35                      l2656 0A02  
                    l2648 09F1                      l3640 0772                      l3632 06FE  
                    l3624 06CA                      l3616 0674                      l3608 062C  
                    l3560 039B                      l3552 0383                      l3544 037F  
                    l3536 0376                      l3528 0369                      l2586 001A  
                    l2578 134E                      l2594 14F0                      l2850 0CEE  
                    l2842 0CDE                      l2834 0CBE                      l2826 0CA1  
                    l2818 0C84                      l2770 0BF5                      l2762 0BE2  
                    l2746 16AE                      l2738 1693                      l3466 08BB  
                    l3458 089B                      l3394 0346                      l3386 0320  
                    l3378 02F0                      l3298 006E                      l3490 08C4  
                    l3482 162D                      l3474 15FA                      l2682 0A71  
                    l2674 0A39                      l2666 0A20                      l3642 07BA  
                    l3634 0728                      l3626 06D0                      l3618 0689  
                    l3570 03BE                      l3562 03A6                      l3554 0387  
                    l3546 0380                      l3538 0377                      l1980 144C  
                    l2588 14B1                      l2596 1362                      l2860 0D06  
                    l2852 0CF7                      l2844 0CE0                      l2836 0CCC  
                    l2828 0CA2                      l2780 0C09                      l2772 0BF6  
                    l2764 0BE3                      l2756 0BD5                      l2748 16B3  
                    l3396 0352                      l3388 032B                      l3492 08F3  
                    l3484 1631                      l2676 0A3C                      l2668 0A2A  
                    l2684 0A7A                      l3644 07C3                      l3636 0743  
                    l3628 06E6                      l3580 0401                      l3572 03CB  
                    l3564 03B5                      l3556 038B                      l3548 0381  
                    l1990 1468                      l1982 144D                      l2598 1363  
                    l2870 0D35                      l2862 0D1A                      l2846 0CE9  
                    l2854 0CFD                      l2838 0CD0                      l2790 0C20  
                    l2782 0C0D                      l2766 0BE8                      l2774 0BF8  
                    l2758 0BDA                      l3398 0356                      l3494 098F  
                    l3486 1632                      l3478 1603                      l2678 0A68  
                    l2686 0A8A                      l2694 12F2                      l3646 07DA  
                    l3638 0757                      l3590 056F                      l3582 0417  
                    l3574 03D4                      l3566 03BA                      l3558 038C  
                    l1992 1469                      l1984 144E                      l1976 1442  
                    l2880 0D73                      l2872 0D39                      l2856 0D01  
                    l2848 0CED                      l2792 0C21                      l2784 0C0E  
                    l2776 0C00                      l2768 0BED                      l3496 0995  
                    l2696 12F5                      l3592 05AE                      l3584 0465  
                    l3576 03DB                      l3568 03BD                      l1994 146A  
                    l1986 1451                      l1978 144B                      l2890 0D97  
                    l2882 0D82                      l2874 0D52                      l2866 0D22  
                    l2858 0D02                      l2786 0C13                      l2794 0C23  
                    l2778 0C05                      l2698 12F9                      l3594 05DF  
                    l3586 04BD                      l3578 03EA                      l1988 145A  
                    l2892 0D99                      l2884 0D86                      l2868 0D27  
                    l2876 0D58                      l2796 0C33                      l2788 0C18  
                    l3668 09DB                      l3596 05EA                      l3588 0519  
                    l2886 0D8E                      l2878 0D65                      l2798 0C3F  
                    l3598 05F3                      l2888 0D93                      ?_log 00B0  
                    STR_1 107D                      STR_2 103E                      STR_3 1095  
                    STR_4 10B1                      STR_5 10AE                      STR_6 10B4  
                    STR_7 10A3                      STR_8 109F                      STR_9 10B4  
                    _CREN 00C4                      u3000 16D9                      u3001 16D8  
                    u3010 16F8                      u3011 16F7                      u3030 170C  
                    u3031 170B                      u3200 1520                      u3025 16FD  
                    u3201 151F                      u3050 1727                      u3051 1726  
                    u3220 1534                      u3045 170E                      u3221 1533  
                    u3205 151C                      u3070 1745                      u4110 13AA  
                    u3230 147D                      u2095 145D                      u3071 1744  
                    u3055 1723                      u4111 13A9                      u3215 1528  
                    u3231 147C                      u3080 174A                      u4200 0DEB  
                    u5000 179A                      u4120 154D                      u3160 14FD  
                    u3081 1749                      u3065 1737                      u4201 0DEA  
                    u5001 1799                      u4105 139D                      u4121 154C  
                    u3161 14FC                      u4210 0DF0                      u4130 1569  
                    u3250 148F                      u4211 0DEF                      u5011 17A9  
                    u4131 1568                      u3251 148E                      u4300 0E86  
                    u4220 0E09                      u5020 17C2                      u5012 17AA  
                    u4140 1583                      u3180 150F                      u3260 1499  
                    u4301 0E85                      u4221 0E08                      u5021 17C1  
                    u5013 17AF                      u4141 1582                      u3181 150E  
                    u3261 1498                      u3245 1481                      u4310 0E8A  
                    u4230 0E0D                      u4150 0DB5                      u5014 17B0  
                    u5110 0877                      u3510 09AA                      u4311 0E89  
                    u4231 0E0C                      u4151 0DB4                      u5031 17D1  
                    u5015 17B5                      u5111 0876                      u3175 1501  
                    u3511 09A9                      u4400 0F14                      u4320 0E8F  
                    u4240 0E47                      u4160 0DBB                      u5040 17FC  
                    u5032 17D2                      u5016 17B6                      u3280 14AC  
                    u3520 09F9                      u3600 140A                      u4401 0F15  
                    u4321 0E8E                      u4241 0E46                      u4161 0DBA  
                    u5041 17FB                      u5033 17D7                      u5105 0869  
                    u4145 157F                      u3281 14AB                      u3265 1495  
                    u3521 09F8                      u3601 1409                      u4410 0F32  
                    u4402 0F1A                      u4250 0E52                      u4170 0DC0  
                    u3610 1640                      u5034 17D8                      u5130 0887  
                    u5050 0812                      u4090 1396                      u3530 0A1F  
                    u4411 0F31                      u4403 0F1B                      u4331 0EA1  
                    u4251 0E50                      u4171 0DBF                      u3611 163F  
                    u5035 17DD                      u5131 0886                      u5051 0811  
                    u4091 1395                      u3195 1510                      u3275 14A0  
                    u3531 0A1E                      u4500 0F92                      u4420 0F57  
                    u4340 0EB3                      u4332 0EA8                      u4260 0E53  
                    u4180 0DDC                      u3700 16B3                      u3620 165B  
                    u5036 17DE                      u5140 088D                      u5060 0816  
                    u5220 0995                      u3540 0A2A                      u5300 06D0  
                    u4501 0F91                      u4421 0F56                      u4341 0EB2  
                    u4333 0EAF                      u4245 0E43                      u4181 0DDB  
                    u3701 16B2                      u5045 17F8                      u5141 088C  
                    u5125 087C                      u5061 0815                      u5221 0994  
                    u5205 08C9                      u3541 0A29                      u5301 06CF  
                    u3470 1343                      u3710 0BE2                      u4510 0F99  
                    u4430 0F5C                      u4350 0EB7                      u4270 0E63  
                    u4190 0DE5                      u3630 1675                      u5150 0891  
                    u5070 0836                      u5230 0AAA                      u3550 0A30  
                    u5310 06FE                      u3471 1342                      u3711 0BE1  
                    u4511 0F98                      u4431 0F5B                      u4351 0EB6  
                    u4271 0E62                      u4191 0DE4                      u3631 1674  
                    u5151 0890                      u5071 0835                      u5215 08FC  
                    u5231 0AA9                      u3551 0A2F                      u3535 0A1B  
                    u5311 06FD                      u3480 1387                      u3720 0BE8  
                    u4600 0FFE                      u4520 0F9F                      u4360 0EC4  
                    u4280 0E70                      u3640 167C                      u5160 08A6  
                    u5240 0AD4                      u3560 0A7A                      u5320 0743  
                    u3481 1386                      u3721 0BE7                      u4601 0FFD  
                    u4521 0F9E                      u4361 0EC3                      u4281 0E6F  
                    u3641 167B                      u3625 1656                      u5241 0AD3  
                    u3561 0A79                      u5321 0742                      u3730 0BED  
                    u4530 0FB1                      u4450 0F72                      u5170 08B6  
                    u5090 0855                      u4610 0031                      u3570 0A8A  
                    u5330 0772                      u5250 03DB                      u3731 0BEC  
                    u4531 0FB0                      u4451 0F71                      u5171 08B5  
                    u5091 0854                      u4611 0030                      u3571 0A89  
                    u5331 0771                      u5251 03DA                      u3900 0D01  
                    u3820 0CA1                      u3740 0C0D                      u4540 0FC0  
                    u4460 0F77                      u4380 0EE9                      u3660 1692  
                    u5180 08BA                      u4620 0037                      u3580 1315  
                    u5260 0616                      u3901 0D00                      u3821 0CA0  
                    u3805 0C8D                      u3741 0C0C                      u4461 0F76  
                    u4445 0F67                      u4381 0EE8                      u3661 1691  
                    u5181 08B9                      u5165 08A1                      u5085 0847  
                    u4701 00EB                      u4621 0036                      u3581 1314  
                    u5261 0615                      u3910 0D06                      u3750 0C13  
                    u4550 0FCF                      u4470 0F81                      u3670 1699  
                    u4702 00F2                      u4630 003C                      u5190 15F2  
                    u3590 13E9                      u5270 0644                      u3911 0D05  
                    u3815 0C96                      u3751 0C12                      u4551 0FCE  
                    u4471 0F80                      u4391 0F00                      u4383 0EE5  
                    u4375 0EC7                      u4295 0E73                      u3671 1698  
                    u3655 167E                      u4711 0115                      u4703 00F9  
                    u4631 003B                      u5191 15F1                      u3591 13E8  
                    u5407 077E                      u5271 0643                      u2960 133B  
                    u3920 0D1A                      u3840 0CBD                      u3760 0C18  
                    u4560 0FD8                      u4480 0F87                      u4392 0F01  
                    u4800 0242                      u4712 011C                      u4640 005B  
                    u5280 0674                      u2961 133A                      u3921 0D19  
                    u3841 0CBC                      u3761 0C17                      u4561 0FD7  
                    u4545 0FBB                      u4481 0F86                      u4393 0F06  
                    u4721 0131                      u4713 0123                      u4641 005A  
                    u5417 0791                      u5281 0673                      u3930 0D21  
                    u3850 0CD6                      u3770 0C33                      u4570 0FDD  
                    u4490 0F8C                      u4394 0F07                      u3690 16AE  
                    u4722 0138                      u4650 0061                      u5290 06A1  
                    u5507 143B                      u3931 0D20                      u3851 0CD5  
                    u3835 0CA4                      u3771 0C32                      u4571 0FDC  
                    u4491 0F8B                      u4395 0F0C                      u3691 16AD  
                    u4811 024E                      u4723 013F                      u4651 0060  
                    u5427 07A4                      u5291 06A0                      u5347 0394  
                    u2980 0011                      u3940 0D27                      u3860 0CDE  
                    u3780 0C51                      u4580 0FEA                      u4396 0F0D  
                    u4900 02D5                      u4820 026A                      u4812 0255  
                    u4660 0066                      _RCIF 0065                      u2981 0010  
                    u3941 0D26                      u3861 0CDD                      u3845 0CB9  
                    u3781 0C50                      u4581 0FE9                      u3685 169E  
                    u4901 02D4                      u4813 025C                      u4805 023D  
                    u4741 0165                      u4661 0065                      u5437 07B3  
                    u5357 03AE                      u2990 16C8                      u3950 0D39  
                    u3790 0C8B                      u4590 0FEF                      u4910 02DC  
                    u4742 016C                      u4670 007D                      u2975 1427  
                    u2991 16C7                      u3951 0D38                      u3791 0C8A  
                    u4591 0FEE                      u4911 02DB                      u4831 0276  
                    u4751 0190                      u4743 0173                      u4735 0141  
                    u4671 007C                      u5447 07D4                      u5367 0638  
                    u3960 0D48                      u3880 0CED                      u4920 02E2  
                    u4832 027D                      u4752 0197                      u4680 0082  
                    u5457 1455                      u3881 0CEC                      u4921 02E1  
                    u4833 0284                      u4825 0265                      u4753 019E  
                    u4681 0081                      u5377 0695                      u3970 0D65  
                    u4930 02F4                      u5467 1471                      u3971 0D64  
                    u3875 0CE2                      u4931 02F3                      u4771 01C4  
                    u4691 00CF                      u5387 06F2                      u3980 0D82  
                    u4940 0303                      u4860 02A8                      u4772 01CB  
                    u4692 00D6                      u5477 13B6                      u3981 0D81  
                    u3965 0D43                      u4861 02A7                      u4845 0286  
                    u4781 01EF                      u4773 01D2                      u4765 01A0  
                    u4693 00DD                      u5397 074F                      u3990 0D97  
                    u4950 0320                      u4782 01F6                      u5487 001E  
                    u3991 0D96                      u3975 0D61                      u3895 0CF0  
                    u4951 031F                      u4855 029D                      u4791 021A  
                    u4783 01FD                      u4960 033A                      u4880 02BC  
                    u4792 0221                      u5497 141F                      u3985 0D7E  
                    u4961 0339                      u4945 02FE                      u4881 02BB  
                    u4793 0228                      u4970 0356                      u4890 02C1  
                    u4971 0355                      u4955 031C                      u4891 02C0  
                    u4875 02AB                      u4980 1772                      u4981 1771  
                    u4965 0336                      u4990 178E                      u4991 178D  
                    _TXIF 0064                      _lm35 00C5                      _main 0369  
                    _temp 01C0                      btemp 007E  __end_of_USART_SendString 1388  
                    log@x 00B0                      start 0000           ___fldiv@new_exp 0051  
           _LCD_String_xy 133C                     ??_log 007E          __end_of_LCD_Char 1477  
        __end_of_LCD_Init 13D9             ___fltol@sign1 006D           __end_of___aldiv 175E  
         __end_of___fladd 1000                     ?_main 0070           __end_of___fldiv 0DA8  
                   STR_10 108E                     STR_11 108B                     STR_12 10B4  
                   STR_13 109B                     STR_14 10A7                     STR_15 10AB  
                   STR_16 10AE           __end_of___flmul 0369           __end_of___flsub 15D7  
         __end_of___fltol 16C1                     _ANSEL 0188           __end_of___lwdiv 1539  
         __end_of___lwmod 14B1                     _RCREG 001A                     _RCSTA 0018  
                   _SPBRG 0099                     _PORTD 0008                     _PORTE 0009  
                   _TRISD 0088                     _TRISE 0089                     _TXREG 0019  
                   _TXSTA 0098           __end_of_dpowers 101A                     _frexp 15D7  
                   _errno 00C3                     main@a 01A4                     pclath 000A  
                   status 0003                     wtemp0 007E           __end_of_sprintf 0A8F  
          ?_LCD_String_xy 0075               ?_USART_Init 0026           __initialization 07E3  
             log@exponent 006D              __end_of_main 07E3                    ??_main 00BF  
       __end_of_LCD_Clear 0024                    ?_frexp 0020                    _ADRESH 001E  
                  _ADRESL 009E          LCD_String_xy@msg 0076          LCD_String_xy@pos 0075  
        LCD_String_xy@row 0078                    _OSCCON 008F                    _TRISA0 0428  
                  _TRISC0 0438                    _TRISC1 0439                    _TRISC3 043B  
                  _TRISC6 043E                    _TRISC7 043F          __end_of___xxtofl 08C4  
                  ___flge 175E                    ___fleq 1539                 ??___aldiv 0078  
               ??___fladd 0061                 ??___fldiv 0047                 ??___flmul 002D  
               ??___flsub 007E                 ??___fltol 00AC                 ??___lwdiv 0074  
               ??___lwmod 007C                    _strcat 13D9                    _strcpy 12F1  
               ??_sprintf 00B5                ___flge@ff1 0070                ___flge@ff2 0074  
            ___xxtofl@arg 007A              ___xxtofl@exp 0079              ___xxtofl@val 0070  
              ___fleq@ff1 0070                ___fleq@ff2 0074          __end_oflog@coeff 103E  
               ?_LCD_Char 0070   __end_of__initialization 07FC                 ?_LCD_Init 0070  
         ??_LCD_String_xy 0078              eval_poly@res 00AC                ___fltol@f1 00A8  
          __pcstackCOMMON 0070             __end_of_frexp 1633              ??_LCD_String 0075  
                 ??_frexp 007C                __pbssBANK0 006F                __pbssBANK1 00C3  
              __pbssBANK2 0110                __pbssBANK3 01C0                ??_LCD_Char 0070  
              ??_LCD_Init 0073        __end_of_LCD_String 133C         ?_USART_SendString 0071  
       __end_of__Umul8_16 13AF        ??_USART_SendString 0073                __pmaintext 0369  
          _counter_digito 006F                   ?___flge 0070                   ?___fleq 0070  
         main@Temperature 0190                   ?_strcat 0070                   ?_strcpy 0070  
               ?___xxtofl 0070                __stringtab 1000             LCD_String@msg 0073  
            ??_USART_Init 0079                   ___aldiv 16C1                   ___fladd 0DA8  
                 ___fldiv 0BD5                   ___flmul 0024                   ___flsub 1587  
                 ___fltol 1633                   ___lwdiv 14F5                   ___lwmod 1477  
       __end_of_eval_poly 099E                   __ptext1 12F1                   __ptext2 13D9  
                 __ptext3 099E                   __ptext4 1477                   __ptext5 14F5  
                 __ptext6 0A8F                   __ptext7 15D7                   __ptext8 1539  
                 __ptext9 08C4       USART_SendString@out 0071                   _dpowers 1010  
              ??___xxtofl 0074          ___aldiv@dividend 0074                 _LCD_Clear 0014  
                 main@GAS 01B4                   main@MER 01B8        __end_of_USART_Init 14F5  
                 _sprintf 099E                   clrloop0 0805      end_of_initialization 07FC  
          LCD_Command@cmd 0072                 _RCSTAbits 0018          ___aldiv@quotient 0022  
               _PORTCbits 0007                 _PORTDbits 0008                main@CHOQUE 019A  
             ___fladd@grs 006C             ___xxtofl@sign 0078                ?_LCD_Clear 0070  
             ___fldiv@grs 0053               ___fldiv@rem 004C       USART_Init@baud_rate 0026  
             ___flmul@grs 0034             ?_USART_TxChar 0070             ??_LCD_Command 0070  
          __end_of___flge 1800            __end_of___fleq 1587            __end_of_strcat 140B  
          __end_of_strcpy 1316       start_initialization 07E3                eval_poly@d 00A4  
              eval_poly@n 00A5                eval_poly@x 00A0               __end_of_log 0BD5  
              frexp@value 0020            ??_USART_TxChar 0070     __end_of_LCD_String_xy 1362  
                ??___flge 0078                  ??___fleq 0078                 __Umul8_16 1388  
                ??_strcat 0072                  ??_strcpy 0072                 ___fladd@a 005D  
               ___fladd@b 0059                 ___fldiv@a 003F                 ___fldiv@b 0043  
     __end_of_LCD_Command 1441                 ___flmul@a 0029                 ___flmul@b 0025  
               ___flsub@a 00A0                 ___flsub@b 00A4                 ___latbits 0002  
           __pcstackBANK0 0020             __pcstackBANK1 00A0             __pcstackBANK3 0190  
             ??_LCD_Clear 0073               sprintf@flag 00B8               sprintf@prec 00B9  
               _main$1053 01A8                 _main$1054 01AC                 _main$1055 01B0  
        ___lwdiv@dividend 0072                  ?___aldiv 0070                  ?___fladd 0059  
                ?___fldiv 003F                  ?___flmul 0025                  ?___flsub 00A0  
                ?___fltol 00A8                ?__Umul8_16 0070                  ?___lwdiv 0070  
                ?___lwmod 0078                 __pstrings 1000                 _eval_poly 08C4  
        ___lwdiv@quotient 0075     LCD_String_xy@location 0079                  ?_sprintf 00B0  
         ___aldiv@divisor 0070                  _LCD_Char 1441           ___aldiv@counter 0020  
                _LCD_Init 13AF                 clear_ram0 0804                 _value_adc 01C4  
             _LCD_Command 140B                _ADCON0bits 001F               __stringbase 100F  
              _ADCON1bits 009F      __end_of_USART_TxChar 0014                ?_eval_poly 00A0  
               main@tempC 01BC                 frexp@eptr 0024               ??__Umul8_16 0072  
      __end_of__stringtab 1010          _USART_SendString 1362                sprintf@val 00BB  
                ___xxtofl 080C                strcat@from 0070           ___lwdiv@divisor 0070  
         ___lwdiv@counter 0077                  __ptext10 0024                  __ptext11 1388  
                __ptext20 14B1                  __ptext12 080C                  __ptext21 16C1  
                __ptext13 175E                  __ptext22 133C                  __ptext14 1633  
                __ptext23 1316                  __ptext15 1587                  __ptext24 1441  
                __ptext16 0DA8                  __ptext25 13AF                  __ptext17 0BD5  
                __ptext26 0014                  __ptext18 1362                  __ptext27 140B  
                __ptext19 000A                strcpy@from 0070           _USART_Init$1056 0079  
                _stringBT 0110                _LCD_String 1316                  log@coeff 101A  
             ??_eval_poly 00A7           USART_TxChar@out 0070                 sprintf@ap 00BA  
               sprintf@sp 00BD          ___lwmod@dividend 007A                 stringcode 100A  
  __Umul8_16@multiplicand 0070                  sprintf@c 00BE                  sprintf@f 00B0  
                strcat@cp 0073                  strcat@to 0074           ___lwmod@divisor 0078  
                strcpy@cp 0073                  strcpy@to 0074           ___lwmod@counter 007D  
                stringdir 100A                  stringtab 1000              ___aldiv@sign 0021  
           ___fladd@signs 0069              ___fladd@aexp 006A              ___fladd@bexp 006B  
    __Umul8_16@multiplier 0078              _USART_TxChar 000A                _USART_Init 14B1  
       __Umul8_16@product 0074  
